(lp0
I11
aI5
aI2
aI5
aI4
aI5
aI5
aI5
aI5
aI5
aI5
aI6
aI10
aI5
aI5
aI5
aI3
aI3
aI5
aI7
aI5
aI5
aI5
aI7
aI5
aI9
aI4
aI5
aI5
aI5
aI5
aI5
aI6
aI5
aI6
aI5
aI8
aI3
aI5
aI5
aI5
aI1
aI5
aI3
aI5
aI5
aI5
aI8
aI5
a.