(lp0
I3140
aI21459
aI23605
aI23498
aI24313
aI22574
aI24260
aI30859
aI25076
aI27181
aI66545
aI40490
aI43377
aI45067
aI44672
aI43511
aI45680
aI47497
aI67608
aI50500
aI92020
aI84967
aI74812
aI71696
aI71540
aI78923
aI83237
aI73295
a.