(lp0
F9850.028385127469
aF10083.690039738207
aF3311.312422630757
aF5327.694392357126
aF3228.82430784439
aF2107.9154792233367
aF10980.08981795189
aF16676.319724676683
aF11168.124498664172
aF10332.686803933067
aF104.51716151856945
aF4810.288205815
aF4557.997564075075
aF5574.653596606491
aF8454.5398318042
aF6455.368023125776
aF11337.386235955568
aF11249.449867066996
aF13543.573345137618
aF2662.0074792194428
aF11848.151016186352
aF9293.988498115445
aF4825.125568565334
aF7108.157357806181
aF10004.046375035938
aF9292.230597836866
aF17659.89238722376
aF9872.362817482162
aF7942.173215878872
aF8206.92023507526
aF18683.77663593273
aF8321.170539277182
aF10902.79082049645
aF14683.618435314296
aF12834.000314664892
aF11091.220968442523
aF3153.8651013370913
aF7014.188129590583
aF7712.268467590599
aF7639.078057834196
aF15551.53149305637
aF4921.046926389645
aF866.4554843239026
aF6451.94382855223
aF3305.6329991271937
aF3942.7419126989566
aF8048.700417044359
aF12983.404973054789
aF5809.651694389888
a.