(lp0
F219401.98412698417
aF-19679.24297924298
aF-630234.1269841269
aF-1183474.2063492066
aF-258225.18315018312
aF-479174.26739926735
aF8656.776556776555
aF319629.5787545787
aF3133967.8266178267
aF808339.52991453
aF-6001207.905982907
aF933224.542124542
aF-665442.2161172162
aF-51390.17094017093
aF234093.43711843714
aF69442.03296703291
aF6533106.715506715
aF2306754.334554334
aF304242.8876678877
aF-139061.9352869353
aF667736.3858363858
aF557781.288156288
aF242453.14407814428
aF-62743.77289377287
aF290392.5824175824
aF-38118.498168498176
aF12549.236874236674
aF1544107.356532357
aF978787.973137973
aF30637.39316239319
aF3612287.4236874236
aF900586.4163614165
aF255777.41147741146
aF1097702.0146520147
aF267277.8083028084
aF1615711.05006105
aF494771.00122100115
aF-4079761.3858363857
aF230847.06959706967
aF-423570.3296703296
aF275264.1330891331
aF-1524108.424908425
aF-597941.3308913307
aF21349.877899877887
aF-342115.56776556774
aF692931.9597069597
aF430222.5579975579
aF1089975.2747252749
aF25632.753357753365
a.