(lp0
S'#40004b'
p1
aS'#d9f0d3'
p2
aS'#1b7837'
p3
ag2
aS'#a6dba0'
p4
ag2
ag2
ag2
ag2
ag2
ag2
aS'#f7f7f7'
p5
aS'#762a83'
p6
ag2
ag2
ag2
aS'#5aae61'
p7
ag7
ag2
aS'#e7d4e8'
p8
ag2
ag2
ag2
ag8
ag2
aS'#9970ab'
p9
ag4
ag2
ag2
ag2
ag2
ag2
ag5
ag2
ag5
ag2
aS'#c2a5cf'
p10
ag7
ag2
ag2
ag2
aS'#00441b'
p11
ag2
ag7
ag2
ag2
ag2
ag10
ag2
a.