(lp0
F9.000025465448076
aF-0.16095083133573143
aF-3.223821800682203
aF-0.6870195673644471
aF-1.3826351736528226
aF-0.2894277560172265
aF0.4765128992073101
aF0.1824922505626283
aF0.19711910937650545
aF0.19831592405552706
aF0.19288356599065185
aF1.3857865955815702
aF4.170708190541856
aF0.19169966607271335
aF0.027152905731637318
aF-0.5245691208241691
aF-2.040949884255698
aF-2.258678438317614
aF-0.21324231444012662
aF1.9489951321228118
aF-0.1185176239100435
aF-0.6649835321924439
aF-0.7824514626639071
aF2.0252105256114876
aF-0.3170744019562457
aF3.8579395729800625
aF-1.446617123060401
aF-0.2733239005726195
aF-0.7749697070738226
aF-0.8022004115401459
aF-0.17279556148917585
aF0.9622046389524315
aF1.2510050296568351
aF-0.7423746089887839
aF1.4420238096315598
aF0.315273349341463
aF3.2873316862019974
aF-2.261628696391899
aF0.2865207142713462
aF-0.40078819005456146
aF-0.10573254688420909
aF-4.13612733949549
aF-0.8510880667037141
aF-1.8399579079470108
aF-0.8722236855561892
aF0.6909652697226021
aF0.7666732781642175
aF3.3161346376434326
aF0.659559110961496
a.