(lp0
(lp1
F-124.03622
aF-124.16101
aF-124.15117
aF-124.13782
aF-124.13061
aF-124.13118
aF-124.13235
aF-124.1541
aF-124.20683
aF-124.24154
aF-124.25964
aF-124.30875
aF-124.41355
aF-124.42971
aF-124.45287
aF-124.47409
aF-124.51284
aF-124.54494
aF-124.5639
aF-124.55822
aF-124.53478
aF-124.55283
aF-124.57713
aF-124.5958
aF-124.62854
aF-124.64544
aF-124.68945
aF-124.7117
aF-124.72216
aF-124.73891
aF-124.75985
aF-124.77958
aF-124.8023
aF-124.79664
aF-124.82769
aF-124.7867
aF-124.76925
aF-124.81791
aF-124.74621
aF-124.74754
aF-124.32629
aF-123.75131
aF-123.41766
aF-123.35541
aF-123.12629
aF-123.18264
aF-123.24765
aF-123.04781
aF-123.01323
aF-122.75802
aF-122.73552
aF-122.60809
aF-122.36316
aF-122.25126
aF-122.09836
aF-121.91341
aF-121.64174
aF-121.47362
aF-121.33789
aF-121.23203
aF-121.02014
aF-120.70947
aF-120.51537
aF-120.33344
aF-120.14256
aF-120.04565
aF-119.93209
aF-119.77319
aF-119.69639
aF-119.66286
aF-119.54719
aF-119.53144
aF-119.47336
aF-119.43334
aF-119.28766
aF-119.18487
aF-119.07886
aF-118.91306
aF-118.841
aF-118.77024
aF-118.72017
aF-118.61076
aF-118.49976
aF-118.42
aF-118.33106
aF-118.25102
aF-118.14462
aF-118.04621
aF-117.99912
aF-117.94314
aF-117.89002
aF-117.81542
aF-117.72866
aF-117.67367
aF-117.63179
aF-117.61796
aF-117.52312
aF-117.46393
aF-117.3539
aF-117.26843
aF-117.17012
aF-117.03522
aF-117.03235
aF-117.03334
aF-117.03494
aF-117.03524
aF-117.03642
aF-117.03937
aF-117.03984
aF-117.04223
aF-117.04249
aF-117.04213
aF-117.0417
aF-117.041
aF-117.03991
aF-117.03992
aF-117.03971
aF-117.0395
aF-117.03983
aF-117.03968
aF-117.03968
aF-117.03977
aF-117.05352
aF-117.0225
aF-116.97129
aF-116.93511
aF-116.95737
aF-116.91593
aF-116.91599
aF-116.98558
aF-117.37152
aF-117.51056
aF-117.99385
aF-118.33472
aF-118.48251
aF-118.63199
aF-119.12612
aF-119.93745
aF-120.3984
aF-120.91205
aF-121.19562
aF-121.53311
aF-121.87242
aF-122.12949
aF-122.60771
aF-122.85447
aF-123.11667
aF-123.2659
aF-123.32163
aF-123.33325
aF-123.34514
aF-123.37257
aF-123.55518
aF-124.0356
aa(lp2
F-75.7878
aF-75.78909
aF-75.78861
aF-75.78861
aF-75.78594
aF-75.76734
aF-75.75933
aF-75.74994
aF-75.74064
aF-75.72251
aF-75.70332
aF-75.68142
aF-75.6626
aF-75.64716
aF-75.63827
aF-75.62437
aF-75.60587
aF-75.59494
aF-75.59414
aF-75.57978
aF-75.56561
aF-75.53961
aF-75.52407
aF-75.51973
aF-75.51433
aF-75.49895
aF-75.45386
aF-75.44168
aF-75.42806
aF-75.41653
aF-75.41506
aF-75.40662
aF-75.46924
aF-75.47323
aF-75.47519
aF-75.47641
aF-75.48343
aF-75.49197
aF-75.50802
aF-75.50937
aF-75.51335
aF-75.5215
aF-75.53298
aF-75.54268
aF-75.54856
aF-75.55854
aF-75.55345
aF-75.54138
aF-75.53014
aF-75.51456
aF-75.53033
aF-75.52712
aF-75.52684
aF-75.47117
aF-75.33446
aF-75.16846
aF-75.01512
aF-75.01737
aF-75.0172
aF-75.01675
aF-75.01521
aF-75.01453
aF-75.01339
aF-75.01338
aF-75.01338
aF-75.01315
aF-75.01319
aF-75.0132
aF-75.01327
aF-75.01387
aF-75.01389
aF-75.01426
aF-75.01421
aF-75.01243
aF-75.01132
aF-75.00986
aF-75.00953
aF-75.00899
aF-75.00673
aF-75.00594
aF-75.00585
aF-75.00464
aF-75.00302
aF-75.00275
aF-75.0027
aF-75.00214
aF-75.00245
aF-75.00274
aF-75.00261
aF-75.00259
aF-75.00192
aF-75.00212
aF-75.00213
aF-75.00218
aF-75.00175
aF-75.00167
aF-75.00186
aF-75.00197
aF-75.00108
aF-75.00002
aF-74.99962
aF-74.99915
aF-74.99774
aF-74.99727
aF-74.99663
aF-74.99473
aF-74.99409
aF-74.99352
aF-74.9923
aF-74.98967
aF-74.98884
aF-74.98804
aF-74.98776
aF-74.98625
aF-74.98517
aF-74.98478
aF-74.98439
aF-74.98416
aF-74.9842
aF-74.9842
aF-74.98443
aF-74.98466
aF-74.98468
aF-74.9849
aF-74.98513
aF-74.98618
aF-74.98628
aF-75.06422
aF-75.11611
aF-75.15956
aF-75.23691
aF-75.38031
aF-75.43734
aF-75.50008
aF-75.53414
aF-75.56413
aF-75.59814
aF-75.67121
aF-75.69961
aF-75.70608
aF-75.71597
aF-75.72452
aF-75.73284
aF-75.74077
aF-75.74563
aF-75.75353
aF-75.76726
aF-75.77401
aF-75.78121
aa(lp3
F-77.06276
aF-77.02561
aF-77.00141
aF-76.99288
aF-76.98587
aF-76.97027
aF-76.96349
aF-76.94152
aF-76.93131
aF-76.92472
aF-76.91876
aF-76.9135
aF-76.91374
aF-76.91915
aF-76.92483
aF-76.93487
aF-76.94078
aF-76.94899
aF-76.95488
aF-76.96578
aF-76.97328
aF-76.98527
aF-76.99502
aF-77.03706
aF-77.03901
aF-77.04087
aF-77.03865
aF-77.04534
aF-77.04315
aF-77.03285
aF-77.03248
aF-77.03495
aF-77.0398
aF-77.03841
aF-77.04047
aF-77.04655
aF-77.05164
aF-77.05618
aF-77.06283
aF-77.06611
aF-77.06992
aF-77.07827
aF-77.0783
aF-77.08627
aF-77.09322
aF-77.0991
aF-77.10362
aF-77.10668
aF-77.11132
aF-77.11541
aF-77.11894
aF-77.11976
aF-77.11975
aF-77.09124
aa(lp4
F-87.8156
aF-87.93137
aF-88.10268
aF-88.20645
aF-88.27166
aF-88.33826
aF-88.51576
aF-88.74683
aF-88.93177
aF-89.00206
aF-89.02503
aF-89.0547
aF-89.11703
aF-89.16601
aF-89.30698
aF-89.39616
aF-89.54239
aF-89.60795
aF-89.71432
aF-89.83682
aF-89.96124
aF-90.1518
aF-90.29416
aF-90.50006
aF-90.5618
aF-90.64093
aF-90.64002
aF-90.6418
aF-90.68045
aF-90.75936
aF-90.86453
aF-90.93286
aF-91.00427
aF-91.04603
aF-91.06286
aF-91.07075
aF-91.07931
aF-91.09406
aF-91.09882
aF-91.12316
aF-91.14425
aF-91.1568
aF-91.17612
aF-91.17736
aF-91.13999
aF-91.08001
aF-91.08143
aF-91.14022
aF-91.21327
aF-91.1978
aF-91.23268
aF-91.21774
aF-91.21771
aF-91.21771
aF-91.24419
aF-91.30682
aF-91.46522
aF-91.77449
aF-92.03226
aF-92.3683
aF-92.55146
aF-92.69432
aF-92.76951
aF-92.78804
aF-92.75436
aF-92.69952
aF-92.66392
aF-92.67877
aF-92.84598
aF-92.87649
aF-92.77206
aF-92.67735
aF-92.54859
aF-92.37599
aF-92.29407
aF-92.29258
aF-92.29165
aF-92.20092
aF-89.96571
aF-89.9571
aF-89.96571
aF-90.33662
aF-90.27044
aF-90.22094
aF-90.17822
aF-90.1572
aF-90.13375
aF-90.11714
aF-89.7641
aF-89.43111
aF-88.93326
aF-88.73372
aF-88.66532
aF-88.58419
aF-88.49775
aF-88.38423
aF-88.28652
aF-88.10301
aF-88.07759
aF-87.86351
aF-87.78754
aF-87.84961
aF-87.71942
aF-87.69869
aF-87.69164
aF-87.01986
aF-87.01993
aF-87.80966
aa(lp5
F-80.67905
aF-80.62345
aF-80.64068
aF-80.57018
aF-80.51899
aF-80.51899
aF-80.51903
aF-80.51897
aF-80.51899
aF-80.51799
aF-80.51799
aF-80.519
aF-80.5191
aF-80.51909
aF-80.51901
aF-80.51911
aF-80.51934
aF-80.51934
aF-80.45011
aF-80.37228
aF-80.30588
aF-80.24951
aF-80.21107
aF-80.19089
aF-80.12745
aF-80.04984
aF-79.88117
aF-79.82191
aF-79.71851
aF-79.61302
aF-79.47879
aF-79.47666
aF-79.47667
aF-79.48675
aF-79.45611
aF-79.4126
aF-79.28413
aF-79.23192
aF-79.16173
aF-79.10183
aF-79.03702
aF-78.93873
aF-78.81994
aF-78.77498
aF-78.70559
aF-78.56775
aF-78.4523
aF-78.4316
aF-78.42607
aF-78.35882
aF-78.23858
aF-78.14581
aF-78.02699
aF-77.9273
aF-77.85164
aF-77.77987
aF-77.75419
aF-77.71996
aF-77.71966
aF-77.71908
aF-78.12375
aF-78.40746
aF-78.61431
aF-78.86897
aF-79.08965
aF-79.15816
aF-79.22458
aF-79.50024
aF-79.66277
aF-79.77715
aF-79.91519
aF-79.9954
aF-80.22584
aF-80.32089
aF-80.79929
aF-80.93112
aF-81.36731
aF-81.44865
aF-81.53863
aF-81.74357
aF-81.80222
aF-81.87414
aF-81.93056
aF-81.98306
aF-81.96815
aF-81.96804
aF-81.96803
aF-82.01049
aF-82.04661
aF-82.09187
aF-82.12616
aF-82.12543
aF-82.14977
aF-82.16952
aF-82.1784
aF-82.18801
aF-82.20246
aF-82.22327
aF-82.27376
aF-82.29585
aF-82.3167
aF-82.32229
aF-82.36196
aF-82.41096
aF-82.42098
aF-82.48714
aF-82.47114
aF-82.53097
aF-82.63597
aF-82.60323
aF-82.59862
aF-82.59571
aF-82.5957
aF-82.52025
aF-82.30493
aF-82.19786
aF-82.20789
aF-82.13327
aF-82.08866
aF-81.98396
aF-81.76608
aF-81.78105
aF-81.80564
aF-81.74372
aF-81.65907
aF-81.32789
aF-81.10734
aF-80.99645
aF-80.85086
aF-80.7895
aF-80.73958
aF-80.73634
aF-80.73918
aF-80.70884
aF-80.67915
aa(lp6
F-82.88318
aF-82.87484
aF-82.86562
aF-82.80018
aF-82.76651
aF-82.76668
aF-82.79523
aF-82.8008
aF-82.80563
aF-82.8051
aF-82.79965
aF-82.79801
aF-82.80441
aF-82.82175
aF-82.8218
aF-82.82191
aF-82.82857
aF-82.83616
aF-82.84905
aF-82.86119
aF-82.87484
aF-82.87807
aF-82.88097
aF-82.8871
aF-82.90028
aF-82.90433
aF-82.91531
aF-82.92824
aF-82.93711
aF-82.9475
aF-82.95816
aF-82.96559
aF-82.96559
aF-82.97482
aF-82.98066
aF-82.98339
aF-82.98624
aF-82.98748
aF-82.98748
aF-82.98748
aF-82.98553
aF-82.97774
aF-82.9641
aF-82.95144
aF-82.94072
aF-82.93289
aF-82.93083
aF-82.92465
aF-82.92258
aF-82.90202
aF-82.89993
aFnan
aF-87.58552
aF-87.58143
aF-87.44355
aF-87.31233
aF-87.03714
aF-86.67211
aF-86.3694
aF-86.02421
aF-85.49265
aF-85.15234
aF-85.0025
aF-85.00244
aF-84.9273
aF-84.68652
aF-83.83189
aF-82.65847
aF-82.23739
aF-82.20611
aF-82.20725
aF-82.20979
aF-82.20312
aF-82.18128
aF-82.14697
aF-82.11119
aF-82.06348
aF-82.04357
aF-82.01811
aF-82.01304
aF-82.0273
aF-82.04309
aF-82.01729
aF-81.96184
aF-81.88472
aF-81.77197
aF-81.68329
aF-81.59965
aF-81.34701
aF-81.34697
aF-81.37161
aF-81.33317
aF-81.20043
aF-81.14153
aF-81.0717
aF-80.94749
aF-80.75272
aF-80.49989
aF-80.529
aF-80.5
aF-80.39202
aF-80.2849
aF-80.21823
aF-80.01425
aF-79.97654
aF-80.00689
aF-80.08848
aF-80.11596
aF-80.11389
aF-80.22623
aF-80.31636
aF-80.39162
aF-80.51633
aF-80.68089
aF-80.90079
aF-81.02642
aF-81.19379
aF-81.33761
aF-81.49682
aF-81.5913
aF-81.7737
aF-81.90297
aF-82.0518
aF-82.21828
aF-81.94524
aF-81.74981
aF-81.6405
aF-81.53411
aF-81.3756
aF-81.21512
aF-81.05494
aF-80.92284
aF-81.02013
aF-81.15573
aF-81.19608
aF-81.27318
aF-81.41385
aF-81.57097
aF-81.75831
aF-81.85229
aF-81.92115
aF-82.11247
aF-82.31651
aF-82.46756
aF-82.62287
aF-82.82367
aF-82.90236
aF-82.89457
aF-82.90791
aF-82.79299
aF-82.75332
aF-82.74393
aF-82.76825
aF-82.79252
aF-82.80688
aF-82.80796
aF-82.84569
aF-82.87483
aF-83.10142
aF-83.24095
aF-83.31733
aF-83.46187
aF-83.59713
aF-83.69662
aF-83.82761
aF-83.99928
aF-84.12573
aF-84.25513
aF-84.31123
aF-84.49618
aF-84.60315
aF-84.74676
aF-84.91612
aF-85.03701
aF-85.10112
aF-85.17333
aF-85.24868
aF-85.331
aF-85.39241
aF-85.43623
aF-85.45967
aF-85.47296
aF-85.46908
aF-85.46353
aF-85.55501
aF-85.61594
aF-85.76266
aF-86.11861
aF-86.76981
aF-87.49998
aF-87.45238
aF-87.45538
aF-87.39878
aF-87.43258
aF-87.44629
aF-87.42605
aF-87.40874
aF-87.3937
aF-87.43361
aF-87.48362
aF-87.53522
aF-87.56787
aF-87.60348
aF-87.6272
aF-87.62123
aF-87.59581
aa(lp7
F-111.04694
aF-111.04691
aF-111.04711
aF-111.04711
aF-111.04732
aF-111.04718
aF-111.04713
aF-111.04694
aF-111.04444
aF-111.04399
aF-111.04407
aF-111.04406
aF-111.04401
aF-111.04397
aF-111.04418
aF-111.04549
aF-111.04607
aF-111.04639
aF-111.04659
aF-111.04663
aF-111.04654
aF-111.04806
aF-111.04912
aF-111.0496
aF-111.04898
aF-111.04897
aF-111.04897
aF-111.05553
aF-110.57457
aF-110.15603
aF-109.85068
aF-109.47096
aF-109.05593
aF-108.84041
aF-108.61304
aF-108.36925
aF-108.19927
aF-107.89823
aF-107.50119
aF-107.2323
aF-106.96645
aF-106.762
aF-106.4186
aF-106.01266
aF-105.70237
aF-105.45643
aF-105.22085
aF-104.98043
aF-104.80399
aF-104.69023
aF-104.42651
aF-104.05802
aF-104.0577
aF-104.0577
aF-104.05626
aF-104.05621
aF-104.05596
aF-104.05578
aF-104.0559
aF-104.05592
aF-104.05586
aF-104.05573
aF-104.05555
aF-104.05541
aF-104.05449
aF-104.05461
aF-104.05466
aF-104.05497
aF-104.05537
aF-104.05528
aF-104.05498
aF-104.05501
aF-104.05479
aF-104.05477
aF-104.0545
aF-104.05388
aF-104.05383
aF-104.05348
aF-104.05305
aF-104.05303
aF-104.05315
aF-104.05299
aF-104.05258
aF-104.05286
aF-104.0529
aF-104.05277
aF-104.05288
aF-104.05285
aF-104.05268
aF-104.05286
aF-104.0528
aF-104.05264
aF-104.05267
aF-104.05279
aF-104.05278
aF-104.05277
aF-104.05283
aF-104.05282
aF-104.05279
aF-104.05259
aF-104.05244
aF-104.05253
aF-104.05231
aF-104.05245
aF-104.05336
aF-104.05316
aF-104.05325
aF-104.0535
aF-104.24506
aF-104.58704
aF-104.86787
aF-105.07514
aF-105.2756
aF-105.46928
aF-105.60473
aF-105.82273
aF-106.06118
aF-106.32621
aF-106.59389
aF-106.9166
aF-107.12561
aF-107.27483
aF-107.35937
aF-107.55479
aF-107.75063
aF-107.91411
aF-108.10567
aF-108.25764
aF-108.46524
aF-108.59802
aF-108.6996
aF-108.83854
aF-109.03134
aF-109.05008
aF-109.05847
aF-109.30329
aF-109.43099
aF-109.51776
aF-109.63381
aF-109.67348
aF-109.75044
aF-109.90645
aF-110.0004
aF-110.14713
aF-110.25071
aF-110.34177
aF-110.43401
aF-110.55878
aF-110.70521
aF-110.86384
aF-110.94406
aF-111.04686
aF-111.04688
aF-111.04667
aF-111.04648
aF-111.04611
aF-111.0458
aF-111.04601
aF-111.04631
aF-111.04682
aF-111.04669
aF-111.04671
aa(lp8
F-70.95475
aF-70.96455
aF-70.97
aF-70.98104
aF-70.98062
aF-70.93521
aF-70.88701
aF-70.84451
aF-70.81753
aF-70.8291
aF-70.57509
aF-70.57738
aF-70.68442
aF-70.72492
aF-70.735
aF-70.83079
aF-70.87102
aF-70.90277
aF-70.94388
aF-70.98147
aF-71.0044
aF-71.04967
aF-71.07206
aF-71.11392
aF-71.18521
aF-71.1977
aF-71.22616
aF-71.28879
aF-71.34818
aF-71.42354
aF-71.47433
aF-71.54741
aF-71.66491
aF-71.81162
aF-71.9618
aF-72.01069
aF-72.08588
aF-72.22286
aF-72.37299
aF-72.45819
aF-72.45844
aF-72.45829
aF-72.54461
aF-72.53079
aF-72.45751
aF-72.4381
aF-72.4387
aF-72.41469
aF-72.38269
aF-72.30597
aF-72.24088
aF-72.18222
aF-72.09098
aF-72.09302
aF-72.05257
aF-72.06389
aF-72.05867
aF-72.00009
aF-71.80349
aF-71.63829
aF-71.57189
aF-71.5515
aF-71.61868
aF-71.55303
aF-71.50972
aF-71.53521
aF-71.50109
aF-71.49957
aF-71.49974
aF-71.50012
aF-71.49874
aF-71.49906
aF-71.49615
aF-71.4928
aF-71.49747
aF-71.50509
aF-71.50065
aF-71.49755
aF-71.50095
aF-71.49627
aF-71.49797
aF-71.49529
aF-71.49021
aF-71.48725
aF-71.48413
aF-71.47864
aF-71.4712
aF-71.46559
aF-71.45825
aF-71.45224
aF-71.44811
aF-71.45008
aF-71.44871
aF-71.44119
aF-71.43671
aF-71.42856
aF-71.42724
aF-71.42737
aF-71.42993
aF-71.43382
aF-71.4365
aF-71.43439
aF-71.43197
aF-71.42654
aF-71.4249
aF-71.42411
aF-71.42397
aF-71.42396
aF-71.42456
aF-71.42301
aF-71.42174
aF-71.41917
aF-71.41753
aF-71.41461
aF-71.41501
aF-71.41024
aF-71.40687
aF-71.40647
aF-71.40458
aF-71.40543
aF-71.4041
aF-71.40192
aF-71.39843
aF-71.39814
aF-71.39911
aF-71.39977
aF-71.40149
aF-71.40217
aF-71.40382
aF-71.41035
aF-71.41479
aF-71.41754
aF-71.42198
aF-71.4264
aF-71.42928
aF-71.43164
aF-71.43378
aF-71.43651
aF-71.43917
aF-71.44323
aF-71.42583
aF-71.40956
aF-71.39262
aF-71.37259
aF-71.35678
aF-71.36137
aF-71.33969
aF-71.31432
aF-71.29265
aF-71.28165
aF-71.26439
aF-71.25587
aF-71.2393
aF-71.22883
aF-71.21714
aF-71.19709
aF-71.18524
aF-71.17566
aF-71.15467
aF-71.13325
aF-71.12189
aF-71.11523
aF-71.11061
aF-71.09965
aF-71.08556
aF-71.08392
aF-71.06197
aF-71.03927
aF-71.01878
aF-71.00891
aF-71.00016
aF-70.99168
aF-70.98346
aF-70.98259
aF-70.98185
aF-70.97602
aF-70.97294
aF-70.95725
aF-70.95222
aF-70.96062
aa(lp9
F-74.78033
aF-74.75971
aF-74.84288
aF-74.91141
aF-74.95722
aF-75.02164
aF-75.06446
aF-75.06413
aF-75.07694
aF-75.12416
aF-75.18778
aF-75.20064
aF-75.20087
aF-75.15718
aF-75.09363
aF-75.10714
aF-75.10754
aF-74.97204
aF-74.91235
aF-74.83551
aF-74.69539
aF-74.69491
aF-74.69469
aF-74.60869
aF-74.53647
aF-74.42301
aF-74.34417
aF-74.24317
aF-74.21505
aF-74.15829
aF-74.14589
aF-74.08378
aF-74.04455
aF-74.02453
aF-73.97729
aF-73.94933
aF-73.92338
aF-73.90399
aF-73.92331
aF-73.95398
aF-74.01113
aF-74.04979
aF-74.12815
aF-74.19571
aF-74.21078
aF-74.24608
aF-74.24959
aF-73.88665
aF-73.88964
aF-73.88675
aF-73.88675
aF-73.88708
aF-73.89821
aF-73.90686
aF-73.92038
aF-73.93321
aF-73.96051
aF-73.96527
aF-73.96512
aF-73.96541
aF-73.97037
aF-73.98603
aF-73.99268
aF-73.99958
aF-74.0199
aF-74.02478
aF-74.03048
aF-74.03461
aF-74.04386
aF-74.06219
aF-74.08332
aF-74.11132
aF-74.12458
aF-74.18319
aF-74.21274
aF-74.24958
aF-74.25491
aF-74.28727
aF-74.31521
aF-74.33613
aF-74.35005
aF-74.35118
aF-74.35744
aF-74.36875
aF-74.37255
aF-74.3922
aF-74.4306
aF-74.45771
aF-74.46226
aF-74.46493
aF-74.47731
aF-74.48695
aF-74.49082
aF-74.50021
aF-74.50976
aF-74.512
aF-74.51845
aF-74.53359
aF-74.55561
aF-74.57488
aF-74.58339
aF-74.58984
aF-74.59947
aF-74.61323
aF-74.6246
aF-74.64428
aF-74.64038
aF-74.64217
aF-74.65356
aF-74.66888
aF-74.68219
aF-74.69599
aF-74.70444
aF-74.71557
aF-74.71741
aF-74.72114
aF-74.72488
aF-74.73342
aF-74.74961
aF-74.75617
aF-74.76309
aF-74.77394
aF-74.79098
aF-74.7969
aF-74.80068
aF-74.80101
aF-74.80357
aF-74.80939
aF-74.81505
aF-74.8193
aF-74.82433
aF-74.83198
aF-74.8408
aF-74.84863
aF-74.85492
aF-74.861
aF-74.86475
aF-74.86923
aF-74.87216
aF-74.87461
aF-74.88208
aF-74.8898
aF-74.89705
aF-74.90404
aF-74.90799
aF-74.91337
aF-74.91097
aF-74.99962
aF-74.99962
aF-75.01512
aF-75.16846
aF-75.33446
aF-75.47117
aF-75.52684
aF-75.52712
aF-75.53033
aF-75.51456
aF-75.53014
aF-75.54138
aF-75.55345
aF-75.55854
aF-75.54856
aF-75.54268
aF-75.53298
aF-75.5215
aF-75.51335
aF-75.50937
aF-75.50802
aF-75.49197
aF-75.48343
aF-75.47641
aF-75.47519
aF-75.47323
aF-75.46924
aF-75.40662
aF-75.41506
aF-75.41502
aF-75.28271
aF-75.13035
aF-74.97933
aF-74.85287
aa(lp10
F-103.55583
aF-104.00265
aF-104.64165
aF-105.14679
aF-105.90075
aF-106.55721
aF-106.63119
aF-106.62216
aF-106.63325
aF-106.61103
aF-106.54568
aF-106.52834
aF-106.52861
aF-106.53181
aF-106.55963
aF-106.56993
aF-106.60042
aF-106.61408
aF-106.62967
aF-106.67613
aF-106.68194
aF-106.7505
aF-106.75874
aF-106.77057
aF-106.82052
aF-106.87555
aF-106.89949
aF-106.93928
aF-106.96546
aF-106.98754
aF-106.99317
aF-106.99823
aF-106.99882
aF-107.00056
aF-107.12556
aF-107.2773
aF-107.29766
aF-107.3093
aF-107.32402
aF-107.35469
aF-107.37629
aF-107.39716
aF-107.42244
aF-107.47074
aF-107.50261
aF-107.53069
aF-107.5835
aF-107.62497
aF-107.6266
aF-107.62774
aF-107.62988
aF-107.63241
aF-107.63786
aF-107.64356
aF-107.65173
aF-107.66987
aF-107.70084
aF-107.70821
aF-107.75058
aF-107.7889
aF-107.84105
aF-107.86238
aF-107.8711
aF-107.88551
aF-107.90473
aF-107.964
aF-108.00059
aF-108.044
aF-108.05664
aF-108.07876
aF-108.08267
aF-108.1052
aF-108.15227
aF-108.17096
aF-108.1986
aF-108.20839
aF-108.20844
aF-108.20841
aF-108.2084
aF-108.20838
aF-108.20837
aF-108.2083
aF-108.20814
aF-108.20819
aF-108.20835
aF-108.20869
aF-108.20855
aF-108.20852
aF-108.20849
aF-108.20839
aF-108.20848
aF-108.20854
aF-108.20857
aF-108.36757
aF-108.38904
aF-108.44606
aF-108.47535
aF-108.53011
aF-108.61731
aF-108.65709
aF-108.70766
aF-108.71907
aF-108.72702
aF-108.73503
aF-108.73904
aF-108.7506
aF-108.75906
aF-108.82206
aF-108.86103
aF-108.88692
aF-109.00061
aF-109.05004
aF-109.05004
aF-109.04911
aF-109.04905
aF-109.04811
aF-109.04764
aF-109.04762
aF-109.0474
aF-109.04691
aF-109.047
aF-109.04692
aF-109.04633
aF-109.04603
aF-109.04598
aF-109.04644
aF-109.04662
aF-109.04636
aF-109.04621
aF-109.04606
aF-109.04578
aF-109.04601
aF-109.04575
aF-109.04579
aF-109.04547
aF-109.04544
aF-109.04531
aF-109.04522
aF-109.04522
aF-109.04518
aF-108.8978
aF-108.7496
aF-108.52833
aF-108.20233
aF-107.8669
aF-107.49519
aF-107.4121
aF-107.25094
aF-107.00562
aF-106.89142
aF-106.73137
aF-106.61906
aF-106.4654
aF-106.15386
aF-105.93761
aF-105.6576
aF-105.50752
aF-105.15658
aF-104.76311
aF-104.49245
aF-104.17265
aF-103.92627
aF-103.53892
aF-103.26061
aF-103.01356
aF-103.0022
aF-103.0022
aF-103.00232
aF-103.00232
aF-103.00228
aF-103.00227
aF-103.00224
aF-103.00223
aF-103.00218
aF-103.00206
aF-103.00213
aF-103.00215
aF-103.0021
aF-103.00214
aF-103.00218
aF-103.00237
aF-103.00218
aF-103.0023
aF-103.00226
aF-103.00223
aF-103.00226
aF-103.0023
aF-103.00233
aF-103.00233
aF-103.00228
aF-103.00228
aF-103.00245
aF-103.00243
aF-103.02394
aF-103.04133
aF-103.04249
aF-103.04239
aF-103.04283
aF-103.04312
aF-103.04338
aF-103.04362
aF-103.04374
aF-103.04376
aF-103.04993
aF-103.05727
aF-103.06464
aF-103.06478
aF-103.53275
aa(lp11
F-94.26958
aF-94.26926
aF-94.23197
aF-94.19515
aF-94.17241
aF-94.13238
aF-94.07521
aF-94.0714
aF-94.04484
aF-94.04311
aF-94.04312
aF-94.04312
aF-94.04311
aF-94.04309
aF-94.04313
aF-94.04313
aF-94.04307
aF-94.04299
aF-94.04311
aF-94.04296
aF-94.04318
aF-94.0429
aF-94.03082
aF-93.93041
aF-93.88414
aF-93.83041
aF-93.82065
aF-93.74373
aF-93.70942
aF-93.68743
aF-93.60701
aF-93.55358
aF-93.55372
aF-93.57217
aF-93.57107
aF-93.61448
aF-93.65349
aF-93.73106
aF-93.69813
aF-93.75524
aF-93.70914
aF-93.71961
aF-93.70656
aF-93.70145
aF-93.70054
aF-93.92799
aF-93.82579
aF-97.16555
aF-97.25026
aF-97.36981
aF-97.39965
aF-97.44891
aF-97.48742
aF-97.57798
aF-97.62202
aF-97.6772
aF-97.749
aF-97.82533
aF-97.98193
aF-98.15616
aF-98.27914
aF-98.38481
aF-98.4801
aF-98.63331
aF-98.92182
aF-99.10065
aF-99.381
aF-99.42732
aF-99.4876
aF-99.49271
aF-99.53514
aF-99.75087
aF-99.93727
aF-100.15794
aF-100.31258
aF-100.40621
aF-100.5334
aF-100.64375
aF-100.77299
aF-100.95073
aF-101.24129
aF-101.40912
aF-101.61168
aF-101.81871
aF-101.98607
aF-102.14603
aF-102.27103
aF-102.38666
aF-102.51804
aF-102.67368
aF-102.76665
aF-102.82411
aF-102.88402
aF-102.90159
aF-103.00895
aF-103.10093
aF-103.23962
aF-103.33397
aF-103.46098
aF-103.59039
aF-103.72904
aF-103.80904
aF-103.95219
aF-104.09026
aF-104.18099
aF-104.27989
aF-104.39552
aF-104.48362
aF-104.52194
aF-104.5437
aF-104.5514
aF-104.57271
aF-104.60428
aF-104.61835
aF-104.64385
aF-104.66612
aF-104.68397
aF-104.6922
aF-104.68691
aF-104.69171
aF-104.68799
aF-104.72489
aF-104.76643
aF-104.81568
aF-104.862
aF-104.87211
aF-104.89031
aF-104.90759
aF-104.94476
aF-104.9839
aF-105.01537
aF-105.05922
aF-105.10589
aF-105.15818
aF-105.19955
aF-105.22853
aF-105.27456
aF-105.30971
aF-105.33863
aF-105.37752
aF-105.39444
aF-105.41206
aF-105.46531
aF-105.51689
aF-105.78468
aF-106.28079
aF-106.5283
aF-106.54568
aF-106.61103
aF-106.63325
aF-106.62216
aF-106.63119
aF-106.55721
aF-105.90075
aF-105.14679
aF-104.64165
aF-104.00265
aF-103.55583
aF-103.53275
aF-103.06478
aF-103.06464
aF-103.05727
aF-103.04993
aF-103.04376
aF-103.04374
aF-103.04362
aF-103.04338
aF-103.04312
aF-103.04283
aF-103.04239
aF-103.04249
aF-103.04133
aF-103.02394
aF-103.00243
aF-103.00211
aF-100.11293
aF-100.00038
aF-99.68436
aF-99.26094
aF-98.96067
aF-98.4096
aF-97.9567
aF-97.58967
aF-97.20491
aF-97.09021
aF-96.86625
aF-96.53006
aF-96.31838
aF-96.17029
aF-95.95005
aF-95.81514
aF-95.52052
aF-95.30672
aF-95.2406
aF-95.10089
aF-95.02577
aF-94.86696
aF-94.76008
aF-94.63324
aF-94.48594
aF-94.48588
aF-94.46335
aF-94.46124
aF-94.46748
aF-94.41733
aF-94.40149
aF-94.34879
aF-94.30425
aa(lp12
F-93.55358
aF-93.60701
aF-93.68743
aF-93.70942
aF-93.74373
aF-93.82065
aF-93.83041
aF-93.88414
aF-93.93041
aF-94.03082
aF-94.0429
aF-94.04318
aF-94.04296
aF-94.04273
aF-93.97693
aF-93.84706
aF-93.66171
aF-93.47987
aF-93.37442
aF-93.31438
aF-93.20515
aF-93.10172
aF-92.91975
aF-92.81184
aF-92.72216
aF-92.66297
aF-92.54423
aF-92.521
aF-92.42918
aF-92.34672
aF-92.28058
aF-92.23215
aF-92.10257
aF-91.88448
aF-91.62753
aF-91.48868
aF-91.37409
aF-91.3189
aF-91.16678
aF-91.16607
aF-91.16604
aF-91.16145
aF-91.04507
aF-90.97966
aF-91.02601
aF-91.16081
aF-91.13441
aF-91.24635
aF-91.32131
aF-91.40021
aF-91.47316
aF-91.5136
aF-91.65489
aF-91.0792
aF-90.47267
aF-90.00554
aF-89.78163
aF-89.81684
aF-89.83851
aF-89.82039
aF-89.80341
aF-89.75564
aF-89.7188
aF-89.68416
aF-89.62879
aF-88.90033
aF-88.87502
aF-88.8176
aF-88.77478
aF-88.75942
aF-88.76725
aF-88.80473
aF-88.87835
aF-88.96676
aF-89.00724
aF-89.05286
aF-89.12136
aF-89.1292
aF-89.1121
aF-89.02261
aF-88.96037
aF-88.90881
aF-88.9146
aF-88.97793
aF-89.00119
aF-89.01269
aF-89.05397
aF-89.12486
aF-89.20862
aF-89.24748
aF-89.29969
aF-89.33736
aF-89.38009
aF-89.40099
aF-89.45653
aF-89.47784
aF-89.49184
aF-89.46986
aF-89.46416
aF-89.46781
aF-89.48008
aF-89.48715
aF-89.50232
aF-89.54867
aF-89.58363
aF-89.63647
aF-89.73933
aF-89.87185
aF-90.06859
aF-90.13553
aF-90.2007
aF-90.23674
aF-90.31116
aF-90.40115
aF-90.45776
aF-90.59265
aF-90.74686
aF-90.83308
aF-90.9171
aF-90.98187
aF-91.02324
aF-90.9894
aF-90.96923
aF-91.02001
aF-91.06388
aF-91.11839
aF-91.18786
aF-91.3187
aF-91.37691
aF-91.42113
aF-91.56075
aF-91.58874
aF-91.63049
aF-91.66573
aF-91.70652
aF-91.74904
aF-91.78902
aF-91.82303
aF-91.87691
aF-91.91301
aF-91.94545
aF-91.98387
aF-92.03653
aF-92.04734
aF-92.07427
aF-92.13345
aF-92.2083
aF-92.27409
aF-92.39691
aF-92.49445
aF-92.61731
aF-92.70501
aF-92.75071
aF-92.82285
aF-92.90445
aF-92.98992
aF-93.05146
aF-93.1479
aF-93.22317
aF-93.28735
aF-93.32177
aF-93.3607
aF-93.39874
aF-93.58789
aF-93.75
aF-93.76652
aF-93.80661
aF-93.92799
aF-93.70054
aF-93.70145
aF-93.70656
aF-93.71961
aF-93.70914
aF-93.75524
aF-93.69813
aF-93.73106
aF-93.65349
aF-93.61448
aF-93.57107
aF-93.57217
aF-93.55372
aa(lp13
F-80.79781
aF-80.91082
aF-81.05275
aF-81.2044
aF-81.48452
aF-81.96738
aF-82.28251
aF-82.38088
aF-82.42588
aF-82.4516
aF-82.52213
aF-82.57745
aF-82.63923
aF-82.68679
aF-82.75555
aF-82.7814
aF-83.10861
aF-83.10871
aF-83.21237
aF-83.32037
aF-83.36004
aF-83.42705
aF-83.54938
aF-83.61899
aF-83.6871
aF-83.73008
aF-83.77868
aF-83.80948
aF-83.8311
aF-83.89374
aF-83.92121
aF-83.95108
aF-83.96682
aF-83.99616
aF-84.03039
aF-84.06241
aF-84.08751
aF-84.12832
aF-84.16361
aF-84.19786
aF-84.2403
aF-84.2735
aF-84.32092
aF-84.32187
aF-84.3218
aF-84.26532
aF-84.18452
aF-84.0994
aF-84.02178
aF-83.98938
aF-83.77309
aF-83.40743
aF-83.08798
aF-82.9646
aF-82.90257
aF-82.79452
aF-82.713
aF-82.61566
aF-82.56262
aF-82.39032
aF-82.24485
aF-82.13676
aF-81.99778
aF-81.82069
aF-81.72406
aF-81.72817
aF-81.70827
aF-81.69995
aF-81.69993
aF-81.67746
aF-81.67739
aF-81.66926
aF-81.5431
aF-81.46251
aF-81.37445
aF-81.24189
aF-81.09704
aF-80.94629
aF-80.74133
aF-80.43349
aF-80.24168
aF-80.0067
aF-79.73243
aF-79.46633
aF-79.21377
aF-78.96342
aF-78.7607
aF-78.52871
aF-78.32391
aF-78.15975
aF-78.02186
aF-77.80233
aF-77.45941
aF-77.02626
aF-76.7804
aF-76.15065
aF-75.7975
aF-75.79051
aF-75.70908
aF-75.65319
aF-75.58156
aF-75.46945
aF-75.43954
aF-75.40502
aF-75.41509
aF-75.41813
aF-75.42176
aF-75.42364
aF-75.42424
aF-75.42733
aF-75.44124
aF-75.4502
aF-75.45746
aF-75.46438
aF-75.4821
aF-75.51392
aF-75.54434
aF-75.56131
aF-75.57965
aF-75.59537
aF-75.6246
aF-75.67238
aF-75.7289
aF-75.79156
aF-75.81204
aF-75.83728
aF-75.86789
aF-75.9079
aF-75.92883
aF-75.93873
aF-75.95007
aF-75.97235
aF-75.98535
aF-75.99841
aF-76.02443
aF-76.14298
aF-76.23619
aF-76.28007
aF-76.31573
aF-76.3406
aF-76.36107
aF-76.37385
aF-76.439
aF-76.45345
aF-76.48318
aF-76.52438
aF-76.58372
aF-76.60681
aF-76.62801
aF-76.66678
aF-76.71066
aF-76.76437
aF-76.83626
aF-76.86783
aF-76.88697
aF-76.90463
aF-76.92642
aF-76.94078
aF-76.96077
aF-77.08062
aF-77.1172
aF-77.13097
aF-77.2015
aF-77.25596
aF-77.29508
aF-77.32125
aF-77.36093
aF-77.41883
aF-77.48027
aF-77.52742
aF-77.59487
aF-77.61397
aF-77.63549
aF-77.66845
aF-77.69109
aF-77.70929
aF-77.73076
aF-77.74712
aF-77.76438
aF-77.80025
aF-77.83021
aF-77.85839
aF-77.88452
aF-77.88927
aF-77.89777
aF-77.89531
aF-77.89369
aF-77.89793
aF-77.94306
aF-78.00483
aF-78.02947
aF-78.08067
aF-78.18298
aF-78.23309
aF-78.30098
aF-78.35991
aF-78.399
aF-78.48815
aF-78.55893
aF-78.7336
aF-78.91037
aF-79.1444
aF-79.30747
aF-79.48294
aF-79.96833
aF-80.29358
aF-80.62608
aF-80.79774
aa(lp14
F-96.57216
aF-96.572
aF-96.56367
aF-96.56408
aF-96.87069
aF-97.23228
aF-97.42856
aF-97.64674
aF-97.97878
aF-98.35219
aF-98.67773
aF-99.1968
aF-99.65552
aF-99.88012
aF-100.07133
aF-100.43208
aF-100.56563
aF-100.9352
aF-101.33389
aF-101.72172
aF-101.77862
aF-102.04022
aF-102.20142
aF-102.40751
aF-102.78855
aF-102.98343
aF-103.16001
aF-103.44516
aF-104.03371
aF-104.04544
aF-104.04547
aF-104.04585
aF-104.04546
aF-104.04594
aF-104.04519
aF-104.04556
aF-104.04586
aF-104.0458
aF-104.04517
aF-104.04498
aF-104.04539
aF-104.04507
aF-104.04414
aF-104.04353
aF-104.04232
aF-104.04217
aF-104.04442
aF-104.04586
aF-104.04594
aF-104.04633
aF-104.04782
aF-104.04786
aF-104.04971
aF-104.04887
aF-104.0488
aF-104.04874
aF-104.04856
aF-103.99247
aF-103.96942
aF-103.92198
aF-103.86489
aF-103.85229
aF-103.72748
aF-103.59557
aF-103.48687
aF-103.40663
aF-103.37769
aF-103.3508
aF-103.34229
aF-103.31062
aF-103.25016
aF-103.15841
aF-103.06324
aF-102.98106
aF-102.8755
aF-102.83729
aF-102.80521
aF-102.78843
aF-102.67657
aF-102.63741
aF-102.56781
aF-102.55436
aF-102.5344
aF-102.43633
aF-102.35157
aF-102.27514
aF-102.25045
aF-102.17462
aF-102.15004
aF-102.08472
aF-102.07267
aF-102.05987
aF-102.02863
aF-101.96686
aF-101.87544
aF-101.78691
aF-101.6285
aF-101.58878
aF-101.50623
aF-101.42965
aF-101.3119
aF-101.25043
aF-101.22591
aF-101.20557
aF-101.1686
aF-101.11532
aF-101.09067
aF-101.01586
aF-100.92058
aF-100.84058
aF-100.68693
aF-100.50043
aF-100.43435
aF-100.36574
aF-100.30826
aF-100.21249
aF-100.18271
aF-100.12505
aF-100.04887
aF-99.91992
aF-99.87822
aF-99.86024
aF-99.75056
aF-99.68052
aF-99.56998
aF-99.50042
aF-99.37163
aF-99.30329
aF-99.16405
aF-99.04431
aF-99.0004
aF-98.91326
aF-98.74841
aF-98.6254
aF-98.523
aF-98.48366
aF-98.37541
aF-98.27424
aF-98.25288
aF-98.24211
aF-98.22995
aF-98.21081
aF-98.13324
aF-98.00037
aF-97.9502
aF-97.88414
aF-97.81887
aF-97.77575
aF-97.70977
aF-97.66153
aF-97.56062
aF-97.49112
aF-97.44756
aF-97.39019
aF-97.29307
aF-97.24816
aF-97.23006
aF-97.23062
aF-97.17801
aF-97.13643
aF-97.13104
aF-97.12893
aF-97.13601
aF-97.01554
aF-96.99136
aF-96.93103
aF-96.85885
aF-96.85894
aF-96.85824
aF-96.83686
aF-96.84191
aF-96.83662
aF-96.83533
aF-96.79675
aF-96.78652
aF-96.75432
aF-96.73971
aF-96.71908
aF-96.69318
aF-96.60042
aF-96.59199
aa(lp15
F-95.84917
aF-95.76564
aF-95.76853
aF-95.76286
aF-95.72473
aF-95.70437
aF-95.6971
aF-95.6813
aF-95.65288
aF-95.67003
aF-95.68867
aF-95.69679
aF-95.68753
aF-95.65657
aF-95.64393
aF-95.62892
aF-95.62994
aF-95.61348
aF-95.55329
aF-95.51226
aF-95.48132
aF-95.44069
aF-95.39537
aF-95.39911
aF-95.39693
aF-95.42
aF-95.37692
aF-95.30847
aF-95.30829
aF-95.30855
aF-95.53642
aF-95.72806
aF-95.99926
aF-96.25662
aF-96.46649
aF-96.63358
aF-96.87596
aF-97.14189
aF-97.43479
aF-97.73793
aF-97.97966
aF-98.24065
aF-98.46173
aF-98.74792
aF-99.01739
aF-99.31246
aF-99.66648
aF-99.94642
aF-100.16409
aF-100.38662
aF-100.57028
aF-100.73031
aF-101.09803
aF-101.42433
aF-102.03708
aF-102.05174
aF-102.05176
aF-102.05176
aF-102.05145
aF-102.05131
aF-102.05152
aF-102.0515
aF-102.0515
aF-102.05144
aF-102.05144
aF-102.05143
aF-102.05145
aF-102.05152
aF-102.05154
aF-102.05156
aF-102.12861
aF-102.23951
aF-102.38345
aF-102.55879
aF-102.76668
aF-102.88728
aF-103.00202
aF-103.30624
aF-103.46471
aF-103.61529
aF-103.90732
aF-104.05153
aF-104.05325
aF-104.05316
aF-104.05336
aF-104.05245
aF-104.05231
aF-104.05253
aF-104.05244
aF-104.05259
aF-104.05279
aF-104.05282
aF-104.05283
aF-104.05277
aF-104.05278
aF-104.05279
aF-104.05267
aF-104.05264
aF-104.0528
aF-104.05286
aF-104.05268
aF-104.05285
aF-104.05288
aF-104.05277
aF-104.0529
aF-104.05286
aF-104.05258
aF-104.05299
aF-104.05315
aF-104.05303
aF-104.04965
aF-103.68755
aF-103.34071
aF-102.87546
aF-102.4667
aF-101.80881
aF-101.11095
aF-100.67045
aF-100.29277
aF-99.8653
aF-99.55822
aF-99.25445
aF-98.99731
aF-98.5969
aF-98.33349
aF-98.11512
aF-97.96019
aF-97.81711
aF-97.46693
aF-97.30597
aF-97.21357
aF-97.05375
aF-96.92416
aF-96.72803
aF-96.64806
aF-96.44721
aF-96.44548
aF-96.3813
aF-96.32457
aF-96.35062
aF-96.32021
aF-96.27217
aF-96.23027
aF-96.18955
aF-96.13917
aF-96.14605
aF-96.06503
aF-96.09494
aF-96.0846
aF-96.09276
aF-96.08396
aF-96.01059
aF-95.92987
aF-95.91817
aF-95.89245
aF-95.90741
aF-95.91746
aF-95.92339
aF-95.88262
aF-95.87425
aF-95.82779
aF-95.84983
aa(lp16
F-88.47298
aF-88.52806
aF-88.63014
aF-88.71977
aF-88.84545
aF-88.95479
aF-89.07463
aF-89.17112
aF-89.25181
aF-89.35464
aF-89.44308
aF-89.56309
aF-89.68881
aF-89.78755
aF-89.8214
aF-89.84587
aF-89.8915
aF-89.94355
aF-90.00757
aF-90.11634
aF-90.19931
aF-90.30589
aF-90.30929
aF-90.30942
aF-90.20033
aF-90.10552
aF-90.13212
aF-90.13453
aF-90.11122
aF-90.14507
aF-90.11368
aF-90.0679
aF-90.03102
aF-90.05002
aF-90.02667
aF-89.98542
aF-89.95853
aF-89.94016
aF-89.90855
aF-89.94565
aF-89.94868
aF-89.87786
aF-89.88592
aF-89.95807
aF-89.88683
aF-89.79855
aF-89.71528
aF-89.68002
aF-89.73304
aF-89.73309
aF-89.73264
aF-89.68195
aF-89.62191
aF-89.60762
aF-89.59466
aF-89.59804
aF-89.62904
aF-89.67608
aF-89.69506
aF-89.70554
aF-89.69494
aF-89.68064
aF-89.63679
aF-89.6004
aF-89.565
aF-89.54576
aF-89.53467
aF-89.54829
aF-89.59984
aF-89.61576
aF-89.54852
aF-89.51396
aF-89.5205
aF-89.53791
aF-89.53941
aF-89.53015
aF-89.52931
aF-89.52817
aF-89.5281
aF-89.51882
aF-89.51737
aF-89.51474
aF-89.51399
aF-89.5088
aF-89.50848
aF-89.50454
aF-89.50425
aF-89.50398
aF-89.50368
aF-89.50338
aF-89.50007
aF-89.49803
aF-89.49561
aF-89.49299
aF-89.48949
aF-89.48948
aF-89.48896
aF-89.48767
aF-89.4858
aF-89.48579
aF-89.48542
aF-89.48511
aF-89.45351
aF-89.41826
aF-89.41822
aF-89.40832
aF-89.04805
aF-88.90014
aF-88.81325
aF-88.76146
aF-88.71346
aF-88.67759
aF-88.56986
aF-88.54281
aF-88.4935
aF-88.30572
aF-88.08786
aF-88.05411
aF-87.56239
aF-87.23264
aF-86.80393
aF-86.34009
aF-85.85993
aF-85.57673
aF-85.36948
aF-85.21816
aF-84.87494
aF-84.4418
aF-84.10529
aF-83.89071
aF-83.67561
aF-83.67541
aF-83.67501
aF-83.63133
aF-83.57243
aF-83.52083
aF-83.37065
aF-83.25263
aF-83.14636
aF-82.99989
aF-82.88891
aF-82.79015
aF-82.71555
aF-82.6327
aF-82.56043
aF-82.46933
aF-82.27253
aF-82.22587
aF-82.20741
aF-82.19468
aF-82.18187
aF-82.17095
aF-82.13071
aF-82.02833
aF-81.9335
aF-81.84889
aF-81.75318
aF-81.6764
aF-81.67739
aF-81.67746
aF-81.69993
aF-81.69995
aF-81.70827
aF-81.72817
aF-81.72406
aF-81.82069
aF-81.99778
aF-82.13676
aF-82.24485
aF-82.39032
aF-82.56262
aF-82.61566
aF-82.713
aF-82.79452
aF-82.90257
aF-82.9646
aF-83.08798
aF-83.40743
aF-83.77309
aF-83.98938
aF-84.02178
aF-84.0994
aF-84.18452
aF-84.26532
aF-84.3218
aF-84.32187
aF-84.32372
aF-84.36072
aF-84.38684
aF-84.48745
aF-84.57298
aF-84.63645
aF-84.71811
aF-84.77952
aF-84.85683
aF-84.93036
aF-84.97928
aF-85.04505
aF-85.10191
aF-85.11935
aF-85.15782
aF-85.19582
aF-85.22345
aF-85.24754
aF-85.27286
aF-85.30073
aF-85.32395
aF-85.36034
aF-85.40827
aF-85.45921
aF-85.5219
aF-85.60495
aF-85.60516
aF-85.61056
aF-85.82402
aF-85.9678
aF-86.22574
aF-86.40235
aF-86.46906
aF-86.55577
aF-86.62721
aF-86.67764
aF-86.72891
aF-86.77754
aF-86.83631
aF-86.90491
aF-86.99835
aF-87.14463
aF-87.23865
aF-87.31998
aF-87.38466
aF-87.4185
aF-87.50511
aF-87.62391
aF-87.7624
aF-87.86063
aF-87.98398
aF-88.12503
aF-88.20029
aF-88.20006
aF-88.24958
aF-88.30513
aF-88.37504
aF-88.47288
aa(lp17
F-74.04626
aF-74.04607
aF-74.04586
aF-74.0453
aF-74.04485
aF-74.04453
aF-74.04428
aF-74.04405
aF-74.04393
aF-74.04392
aF-74.04377
aF-74.04366
aF-74.04356
aF-74.04352
aF-74.04351
aF-74.04356
aF-74.04359
aF-74.04366
aF-74.0438
aF-74.04398
aF-74.04421
aF-74.0444
aF-74.04457
aF-74.04479
aF-74.04507
aF-74.04537
aF-74.04562
aF-74.04588
aF-74.04614
aF-74.04647
aF-74.04657
aF-74.04675
aF-74.04699
aF-74.04728
aF-74.04713
aF-74.0471
aF-74.04712
aF-74.04718
aF-74.04721
aF-74.04723
aF-74.04725
aF-74.04717
aF-74.0471
aF-74.04689
aF-74.04657
aFnan
aF-74.0394
aF-74.03833
aF-74.0382
aF-74.03814
aF-74.03818
aF-74.03829
aF-74.03844
aF-74.03858
aF-74.03881
aF-74.03898
aF-74.0392
aF-74.03932
aF-74.03939
aF-74.03943
aF-74.03949
aF-74.03956
aF-74.03963
aF-74.03966
aF-74.03973
aF-74.03982
aF-74.04015
aF-74.03966
aF-74.03973
aF-74.03988
aF-74.04
aF-74.04011
aF-74.04015
aF-74.04017
aF-74.04017
aF-74.0401
aF-74.04012
aF-74.04021
aF-74.04029
aF-74.0403
aF-74.04035
aF-74.04036
aF-74.04031
aF-74.04018
aF-74.04006
aF-74.03993
aF-74.03979
aF-74.03973
aF-74.03961
aF-74.03949
aFnan
aF-77.03866
aF-77.42501
aF-78.10883
aF-78.5076
aF-79.09032
aF-79.43274
aF-79.76178
aF-79.74977
aF-79.33801
aF-78.95688
aF-78.90566
aF-78.96176
aF-79.01175
aF-79.03976
aF-79.06356
aF-79.05823
aF-79.05677
aF-79.0441
aF-79.05102
aF-79.05161
aF-79.05479
aF-79.05605
aF-79.1053
aF-79.06372
aF-78.69929
aF-78.50847
aF-78.19401
aF-77.80264
aF-77.388
aF-77.13346
aF-76.857
aF-76.73472
aF-76.44042
aF-76.37467
aF-76.24966
aF-76.13001
aF-76.00836
aF-75.98347
aF-75.97828
aF-75.94954
aF-75.87468
aF-75.80776
aF-75.77215
aF-75.74968
aF-75.69544
aF-75.63044
aF-75.52095
aF-75.47969
aF-75.44405
aF-75.39701
aF-75.33875
aF-75.30762
aF-75.26259
aF-75.24567
aF-75.20877
aF-75.17629
aF-75.13987
aF-75.12572
aF-75.09812
aF-75.06483
aF-75.02646
aF-74.99965
aF-74.97249
aF-74.91854
aF-74.89176
aF-74.86264
aF-74.84173
aF-74.81326
aF-74.77775
aF-74.75171
aF-74.74464
aF-74.71452
aF-74.6784
aF-74.65822
aF-74.62524
aF-74.6027
aF-74.54344
aF-74.49964
aF-74.44958
aF-74.40247
aF-74.36027
aF-74.30849
aF-74.25662
aF-74.21952
aF-74.16624
aF-74.12462
aF-74.07723
aF-74.02347
aF-73.97188
aF-73.80261
aF-73.67546
aF-73.55123
aF-73.452
aF-73.37458
aF-73.36747
aF-73.34312
aF-73.37355
aF-73.35206
aF-73.37238
aF-73.36823
aF-73.33091
aF-73.31446
aF-73.29948
aF-73.32441
aF-73.39057
aF-73.41479
aF-73.40944
aF-73.37416
aF-73.3754
aF-73.37258
aF-73.40727
aF-73.4235
aF-73.38525
aF-73.35974
aF-73.30208
aF-73.2879
aF-73.26072
aF-73.24161
aF-73.25123
aF-73.26903
aF-73.27642
aF-73.26496
aF-73.26553
aF-73.27876
aF-73.3147
aF-73.3227
aF-73.32907
aF-73.34314
aF-73.35709
aF-73.36341
aF-73.36905
aF-73.37174
aF-73.37519
aF-73.38202
aF-73.3926
aF-73.39798
aF-73.40134
aF-73.41088
aF-73.41175
aF-73.41386
aF-73.41917
aF-73.44827
aF-73.45443
aF-73.47025
aF-73.48011
aF-73.49467
aF-73.50775
aF-73.48739
aF-73.48731
aF-73.48747
aF-73.49308
aF-73.49936
aF-73.51151
aF-73.52078
aF-73.53325
aF-73.53529
aF-73.53613
aF-73.54256
aF-73.54966
aF-73.50996
aF-73.52098
aF-73.57087
aF-73.61237
aF-73.65167
aF-73.71365
aF-73.69235
aF-73.67519
aF-73.6636
aF-73.65965
aF-73.54419
aF-73.24956
aF-72.9655
aF-72.55156
aF-72.10921
aF-71.90967
aF-71.90726
aF-71.87985
aF-71.87451
aF-71.85851
aF-71.85842
aF-71.85446
aF-71.80938
aF-71.79115
aF-71.79097
aF-71.77749
aF-71.86801
aF-71.89683
aF-71.97967
aF-72.26454
aF-72.62454
aF-73.014
aF-73.06409
aF-73.24956
aF-73.40638
aF-73.51238
aF-73.70609
aF-73.88227
aF-73.88665
aF-74.24959
aF-74.24608
aF-74.21078
aF-74.19571
aF-74.12815
aF-74.04979
aF-74.01113
aF-73.95398
aF-73.92331
aF-73.90399
aF-73.92338
aF-73.94933
aF-73.97729
aF-74.02453
aF-74.04455
aF-74.08378
aF-74.14589
aF-74.15829
aF-74.21505
aF-74.24317
aF-74.34417
aF-74.42301
aF-74.53647
aF-74.60869
aF-74.69469
aF-74.69491
aF-74.74382
aF-74.82486
aF-74.90637
aF-74.98426
aF-75.02421
aF-75.06033
aF-75.04422
aF-75.05121
aF-75.05382
aF-75.0935
aF-75.11334
aF-75.17829
aF-75.24251
aF-75.29669
aF-75.35206
aF-75.89049
aF-76.44508
aF-76.62119
aF-77.03537
aa(lp18
F-80.51904
aF-80.5191
aF-80.51908
aF-80.5191
aF-80.51911
aF-80.51923
aF-80.51935
aF-80.51936
aF-80.51941
aF-80.51941
aF-80.51932
aF-80.51938
aF-80.51935
aF-80.51938
aF-80.49981
aF-80.45998
aF-80.41548
aF-80.3748
aF-80.33122
aF-80.29556
aF-80.25847
aF-80.2498
aF-80.22958
aF-80.20635
aF-80.20531
aF-80.18951
aF-80.16676
aF-80.15038
aF-80.13638
aF-80.12479
aF-80.09792
aF-80.08022
aF-80.06231
aF-80.03805
aF-80.01854
aF-79.99978
aF-79.94382
aF-79.90009
aF-79.87478
aF-79.80512
aF-79.80508
aF-79.76251
aF-79.76178
aF-79.43274
aF-79.09032
aF-78.5076
aF-78.10883
aF-77.42501
aF-77.03866
aF-77.03537
aF-76.62119
aF-76.44508
aF-75.89049
aF-75.35206
aF-75.29669
aF-75.24251
aF-75.17829
aF-75.11334
aF-75.0935
aF-75.05382
aF-75.05121
aF-75.04422
aF-75.06033
aF-75.02421
aF-74.98426
aF-74.90637
aF-74.82486
aF-74.74382
aF-74.69491
aF-74.69539
aF-74.83551
aF-74.91235
aF-74.97204
aF-75.10754
aF-75.10714
aF-75.09363
aF-75.15718
aF-75.20087
aF-75.20064
aF-75.18778
aF-75.12416
aF-75.07694
aF-75.06413
aF-75.06446
aF-75.02164
aF-74.95722
aF-74.91141
aF-74.84288
aF-74.75971
aF-74.78033
aF-74.85287
aF-74.97933
aF-75.13035
aF-75.28271
aF-75.41502
aF-75.41506
aF-75.41653
aF-75.42806
aF-75.44168
aF-75.45386
aF-75.49895
aF-75.51433
aF-75.51973
aF-75.52407
aF-75.53961
aF-75.56561
aF-75.57978
aF-75.59414
aF-75.59494
aF-75.60587
aF-75.62437
aF-75.63827
aF-75.64716
aF-75.6626
aF-75.68142
aF-75.70332
aF-75.72251
aF-75.74064
aF-75.74994
aF-75.75933
aF-75.76734
aF-75.78594
aF-75.78861
aF-75.80329
aF-76.02005
aF-76.26473
aF-76.39563
aF-76.5187
aF-76.70126
aF-76.82275
aF-76.93214
aF-77.06593
aF-77.23094
aF-77.34956
aF-77.47294
aF-77.54385
aF-77.71585
aF-77.78749
aF-77.95623
aF-77.96644
aF-78.11502
aF-78.23749
aF-78.33784
aF-78.45036
aF-78.6245
aF-78.77185
aF-78.90054
aF-79.08455
aF-79.29821
aF-79.47666
aF-79.47879
aF-79.61302
aF-79.71851
aF-79.82191
aF-79.88117
aF-80.04984
aF-80.12745
aF-80.19089
aF-80.21107
aF-80.24951
aF-80.30588
aF-80.37228
aF-80.45011
aF-80.51934
aF-80.51934
aF-80.51911
aF-80.51901
aF-80.51909
aF-80.5191
aF-80.519
aF-80.51799
aF-80.51799
aF-80.51899
aF-80.51897
aF-80.51903
aF-80.51899
aF-80.51899
aF-80.51899
aF-80.51893
aF-80.51905
aF-80.51909
aF-80.51905
aF-80.51979
aF-80.51902
aF-80.519
aF-80.51896
aF-80.51904
aF-80.51889
aF-80.51887
aa(lp19
F-71.64301
aF-71.64276
aF-71.64201
aF-71.64084
aF-71.63497
aF-71.6245
aF-71.60926
aF-71.59159
aF-71.57065
aF-71.55757
aF-71.53598
aF-71.51635
aF-71.49999
aF-71.49659
aF-71.4922
aF-71.48932
aF-71.4865
aF-71.48458
aF-71.48517
aF-71.48588
aF-71.48984
aF-71.48489
aF-71.48272
aF-71.48045
aF-71.4786
aF-71.47692
aF-71.47688
aF-71.47702
aF-71.47956
aF-71.48403
aF-71.48827
aF-71.49143
aF-71.49468
aF-71.4995
aF-71.50189
aF-71.50809
aF-71.51754
aF-71.52817
aF-71.53584
aF-71.54377
aF-71.55316
aF-71.56531
aF-71.5693
aF-71.58409
aF-71.59351
aF-71.60186
aF-71.61167
aF-71.61886
aF-71.6245
aF-71.6303
aF-71.64034
aF-71.64985
aF-71.65763
aF-71.66545
aF-71.66834
aF-71.67264
aF-71.67609
aF-71.6783
aF-71.67881
aF-71.67626
aF-71.67381
aF-71.67281
aF-71.67049
aF-71.66786
aF-71.66377
aF-71.65456
aF-71.65321
aF-71.64938
aFnan
aF-71.28991
aF-71.1976
aF-71.18591
aF-71.15105
aF-71.13334
aF-71.13851
aF-71.12533
aF-71.08857
aF-71.10398
aF-71.11932
aF-71.12459
aF-71.24996
aF-71.25826
aF-71.37449
aF-71.47988
aF-71.483
aF-71.48936
aF-71.4948
aF-71.49934
aF-71.50661
aF-71.50944
aF-71.51206
aF-71.52659
aF-71.54385
aF-71.55693
aF-71.5752
aF-71.57525
aF-71.58445
aF-71.58507
aF-71.59424
aF-71.59815
aF-71.60252
aF-71.6245
aF-71.6245
aF-71.63219
aF-71.6345
aF-71.63613
aF-71.6377
aF-71.64072
aF-71.64564
aF-71.65152
aF-71.65167
aF-71.65698
aF-71.65956
aF-71.66632
aF-71.67259
aF-71.67898
aF-71.68586
aF-71.68645
aF-71.69094
aF-71.6914
aF-71.69504
aF-71.70077
aF-71.70574
aF-71.71166
aF-71.71822
aF-71.71999
aF-71.72343
aF-71.72897
aF-71.72923
aF-71.73283
aF-71.73956
aF-71.7421
aF-71.74704
aF-71.74951
aF-71.75356
aF-71.75929
aF-71.76581
aF-71.77277
aF-71.77843
aF-71.78575
aF-71.79148
aF-71.79148
aF-71.79148
aF-71.79097
aF-71.79097
aF-71.79115
aF-71.80938
aF-71.85446
aF-71.85842
aF-71.85851
aF-71.87451
aF-71.87985
aF-71.90726
aF-71.90722
aF-71.8662
aF-71.8294
aF-71.83767
aF-71.83266
aF-71.8334
aF-71.83538
aF-71.84346
aF-71.83141
aF-71.81486
aF-71.79927
aF-71.79682
aF-71.7956
aF-71.79261
aF-71.79102
aF-71.7904
aF-71.78948
aF-71.78796
aF-71.78753
aF-71.78916
aF-71.79125
aF-71.79326
aF-71.79529
aF-71.79735
aF-71.79817
aF-71.79919
aF-71.79924
aF-71.79022
aF-71.70489
aF-71.60598
aF-71.5446
aF-71.50716
aF-71.45
aF-71.3815
aF-71.38152
aF-71.3816
aF-71.36469
aF-71.3396
aF-71.3421
aF-71.34629
aF-71.34127
aF-71.33372
aF-71.33102
aF-71.33039
aF-71.32896
aa(lp20
F-114.04392
aF-114.04558
aF-114.04619
aF-114.04644
aF-114.04658
aF-114.04727
aF-114.04757
aF-114.0473
aF-114.04779
aF-114.04841
aF-114.04885
aF-114.04833
aF-114.04916
aF-114.04992
aF-114.04997
aF-114.05013
aF-114.04939
aF-114.05198
aF-114.05264
aF-114.05187
aF-114.0506
aF-114.0506
aF-114.05014
aF-114.04736
aF-114.04338
aF-114.04404
aF-114.1139
aF-114.22646
aF-114.32346
aF-114.51122
aF-114.6729
aF-114.73513
aF-114.74365
aF-114.70883
aF-114.67489
aF-114.70415
aF-114.69704
aF-114.68702
aF-114.65449
aF-114.66076
aF-114.6768
aF-114.61121
aF-114.58031
aF-114.57354
aF-114.63064
aF-114.60899
aF-114.63423
aF-114.63349
aF-114.63361
aF-114.82052
aF-115.11622
aF-115.36992
aF-115.65233
aF-115.89512
aF-116.08072
aF-116.37528
aF-116.87227
aF-117.31883
aF-117.79563
aF-118.04392
aF-118.22972
aF-118.51722
aF-119.00097
aF-119.43506
aF-119.76041
aF-119.9748
aF-120.00608
aF-120.0015
aF-120.00049
aF-119.99733
aF-119.99567
aF-119.99926
aF-120.00002
aF-119.99919
aF-119.99917
aF-119.99917
aF-119.90622
aF-119.80128
aF-119.70479
aF-119.61469
aF-119.48157
aF-119.36302
aF-119.25103
aF-119.0022
aF-118.7824
aF-118.54194
aF-118.42657
aF-118.3477
aF-118.19842
aF-118.09918
aF-118.06386
aF-117.99278
aF-117.90359
aF-117.79003
aF-117.71943
aF-117.62441
aF-117.51839
aF-117.46483
aF-117.33055
aF-117.18204
aF-117.02916
aF-117.02622
aF-117.02234
aF-116.861
aF-116.70972
aF-116.55307
aF-116.48554
aF-116.37594
aF-116.20623
aF-116.12593
aF-116.01199
aF-115.98839
aF-115.84911
aF-115.69522
aF-115.52677
aF-115.3968
aF-115.31388
aF-115.25015
aF-115.12254
aF-114.91817
aF-114.76097
aF-114.6492
aF-114.61271
aF-114.49854
aF-114.39727
aF-114.30408
aF-114.18492
aF-114.04537
aF-114.04172
aF-114.0398
aF-114.04055
aF-114.04061
aF-114.04195
aF-114.04375
aF-114.04391
aa(lp21
F-77.07827
aF-77.06992
aF-77.06611
aF-77.06283
aF-77.05618
aF-77.05164
aF-77.04655
aF-77.04047
aF-77.03841
aF-77.0398
aF-77.03495
aF-77.03248
aF-77.03285
aF-77.04315
aF-77.04534
aF-77.03865
aF-77.04087
aF-77.03901
aF-77.0417
aF-77.06982
aF-77.10037
aF-77.179
aF-77.28706
aF-77.11374
aF-76.95825
aF-76.84275
aF-76.59613
aF-76.34762
aF-75.63201
aF-75.16643
aF-75.17708
aF-75.24964
aF-75.26306
aF-75.27873
aF-75.29124
aF-75.31221
aF-75.34947
aF-75.38017
aF-75.40501
aF-75.46093
aF-75.46728
aF-75.47012
aF-75.47082
aF-75.47191
aF-75.47307
aF-75.47441
aF-75.47595
aF-75.47793
aF-75.48099
aF-75.48381
aF-75.48647
aF-75.48814
aF-75.48942
aF-75.49092
aF-75.49255
aF-75.4941
aF-75.49556
aF-75.49736
aF-75.49873
aF-75.50067
aF-75.50325
aF-75.50675
aF-75.50923
aF-75.51216
aF-75.51431
aF-75.51569
aF-75.51544
aF-75.51572
aF-75.51691
aF-75.51764
aF-75.519
aF-75.52089
aF-75.52537
aF-75.52854
aF-75.53205
aF-75.54178
aF-75.53925
aF-75.53822
aF-75.53668
aF-75.53535
aF-75.53428
aF-75.53294
aF-75.53174
aF-75.5301
aF-75.52914
aF-75.52813
aF-75.52778
aF-75.52742
aF-75.52709
aF-75.52694
aF-75.52692
aF-75.52719
aF-75.52758
aF-75.52807
aF-75.52842
aF-75.52904
aF-75.5299
aF-75.53114
aF-75.53264
aF-75.53397
aF-75.53592
aF-75.53784
aF-75.54005
aF-75.54193
aF-75.54428
aF-75.54692
aF-75.55019
aF-75.55224
aF-75.55506
aF-75.58324
aF-75.59564
aF-75.59744
aF-75.61825
aF-75.64032
aF-75.67896
aF-75.71538
aF-75.72186
aF-75.73228
aF-75.74012
aF-75.74964
aF-75.79703
aF-75.82752
aF-75.86941
aF-75.90575
aF-75.92685
aF-75.90526
aF-75.87894
aF-75.87046
aF-75.84981
aF-75.82976
aF-75.80043
aF-75.7975
aF-76.15065
aF-76.7804
aF-77.02626
aF-77.45941
aF-77.80233
aF-78.02186
aF-78.15975
aF-78.32391
aF-78.52871
aF-78.7607
aF-78.96342
aF-79.21377
aF-79.46633
aF-79.73243
aF-80.0067
aF-80.24168
aF-80.43349
aF-80.74133
aF-80.94629
aF-81.09704
aF-81.24189
aF-81.37445
aF-81.46251
aF-81.5431
aF-81.66926
aF-81.67739
aF-81.6764
aF-81.75318
aF-81.84889
aF-81.9335
aF-82.02833
aF-82.13071
aF-82.17095
aF-82.18187
aF-82.19468
aF-82.20741
aF-82.22587
aF-82.27253
aF-82.46933
aF-82.56043
aF-82.6327
aF-82.71555
aF-82.79015
aF-82.88891
aF-82.99989
aF-83.14636
aF-83.25263
aF-83.37065
aF-83.52083
aF-83.57243
aF-83.63133
aF-83.67501
aF-83.67541
aF-83.67529
aF-83.63661
aF-83.49261
aF-83.39561
aF-83.29669
aF-83.1896
aF-83.12554
aF-83.11429
aF-83.05736
aF-82.96488
aF-82.89428
aF-82.86031
aF-82.86269
aF-82.86787
aF-82.83557
aF-82.81298
aF-82.74531
aF-82.72642
aF-82.69567
aF-82.62236
aF-82.53325
aF-82.45539
aF-82.37437
aF-82.30556
aF-82.17067
aF-81.97046
aF-81.96804
aF-81.96815
aF-81.98306
aF-81.93056
aF-81.87414
aF-81.80222
aF-81.74357
aF-81.53863
aF-81.44865
aF-81.36731
aF-80.93112
aF-80.79929
aF-80.32089
aF-80.22584
aF-79.9954
aF-79.91519
aF-79.77715
aF-79.66277
aF-79.50024
aF-79.22458
aF-79.15816
aF-79.08965
aF-78.86897
aF-78.61431
aF-78.40746
aF-78.12375
aF-77.71908
aF-77.71966
aF-77.7196
aF-77.5656
aF-77.45864
aF-77.4824
aF-77.52355
aF-77.5153
aF-77.45697
aF-77.32563
aF-77.2888
aF-77.25429
aF-77.24599
aF-77.19618
aF-77.16662
aF-77.133
aF-77.11976
aF-77.11894
aF-77.11541
aF-77.11132
aF-77.10668
aF-77.10362
aF-77.0991
aF-77.09322
aF-77.08627
aF-77.0783
aa(lp22
F-109.04984
aF-109.06017
aF-109.06015
aF-109.05655
aF-109.05305
aF-109.05158
aF-109.05119
aF-109.05077
aF-109.05132
aF-109.05077
aF-109.05087
aF-109.05088
aF-109.05093
aF-109.05088
aF-109.05051
aF-109.04899
aF-109.04907
aF-109.05008
aF-109.03134
aF-108.83854
aF-108.6996
aF-108.59802
aF-108.46524
aF-108.25764
aF-108.10567
aF-107.91411
aF-107.75063
aF-107.55479
aF-107.35937
aF-107.27483
aF-107.12561
aF-106.9166
aF-106.59389
aF-106.32621
aF-106.06118
aF-105.82273
aF-105.60473
aF-105.46928
aF-105.2756
aF-105.07514
aF-104.86787
aF-104.58704
aF-104.24506
aF-104.0535
aF-104.05325
aF-104.05153
aF-103.90732
aF-103.61529
aF-103.46471
aF-103.30624
aF-103.00202
aF-102.88728
aF-102.76668
aF-102.55879
aF-102.38345
aF-102.23951
aF-102.12861
aF-102.05156
aF-102.05154
aF-102.05152
aF-102.05145
aF-102.05143
aF-102.05144
aF-102.05144
aF-102.0515
aF-102.0515
aF-102.05152
aF-102.05131
aF-102.05145
aF-102.05176
aF-102.05176
aF-102.05174
aF-102.05174
aF-102.05139
aF-102.0506
aF-102.04955
aF-102.04907
aF-102.04875
aF-102.04802
aF-102.04541
aF-102.04514
aF-102.04524
aF-102.04494
aF-102.04501
aF-102.04479
aF-102.04452
aF-102.04447
aF-102.04431
aF-102.04456
aF-102.04402
aF-102.04286
aF-102.04166
aF-102.04179
aF-102.04178
aF-102.04192
aF-102.04196
aF-102.04199
aF-102.0421
aF-102.04209
aF-102.04538
aF-102.05418
aF-102.07425
aF-102.09059
aF-102.17511
aF-102.19751
aF-102.24848
aF-102.26493
aF-102.29933
aF-102.34378
aF-102.35537
aF-102.40232
aF-102.49444
aF-102.52468
aF-102.57091
aF-102.62547
aF-102.68337
aF-102.7059
aF-102.77324
aF-102.81507
aF-102.86545
aF-102.89315
aF-102.9279
aF-102.97961
aF-102.98698
aF-103.00214
aF-103.0022
aF-103.01356
aF-103.26061
aF-103.53892
aF-103.92627
aF-104.17265
aF-104.49245
aF-104.76311
aF-105.15658
aF-105.50752
aF-105.6576
aF-105.93761
aF-106.15386
aF-106.4654
aF-106.61906
aF-106.73137
aF-106.89142
aF-107.00562
aF-107.25094
aF-107.4121
aF-107.49519
aF-107.8669
aF-108.20233
aF-108.52833
aF-108.7496
aF-108.8978
aF-109.04518
aF-109.04522
aF-109.04531
aF-109.04519
aF-109.04583
aF-109.04582
aF-109.04191
aF-109.04159
aF-109.04304
aF-109.04232
aF-109.0498
aa(lp23
F-123.00111
aF-122.99754
aF-122.99509
aF-122.98741
aF-122.98143
aF-122.9776
aF-122.97545
aF-122.97406
aF-122.97326
aF-122.97045
aF-122.96727
aF-122.9641
aF-122.96106
aF-122.95839
aF-122.95464
aF-122.94998
aF-122.94552
aF-122.94229
aF-122.93971
aF-122.93792
aF-122.93768
aF-122.93586
aF-122.93571
aF-122.93734
aF-122.93903
aF-122.93966
aF-122.94136
aF-122.94501
aF-122.94907
aF-122.95488
aF-122.96301
aF-122.97301
aF-122.98051
aF-122.98675
aF-122.99259
aF-123.00091
aF-123.00111
aF-123.00111
aF-123.0116
aF-123.02715
aF-123.0407
aF-123.05358
aF-123.06358
aF-123.06859
aF-123.07306
aF-123.07492
aF-123.07715
aF-123.08188
aF-123.08606
aF-123.08878
aF-123.0918
aF-123.09285
aF-123.0948
aF-123.09965
aF-123.10492
aF-123.11557
aF-123.11964
aF-123.12611
aF-123.1326
aF-123.14149
aF-123.14913
aF-123.15676
aF-123.16275
aF-123.1667
aF-123.16998
aF-123.17293
aF-123.17376
aF-123.17382
aF-123.17371
aF-123.16911
aF-123.16601
aF-123.16094
aF-123.15386
aF-123.15333
aF-123.14721
aF-123.13944
aF-123.13227
aF-123.12611
aF-123.11829
aF-123.10826
aF-123.09526
aF-123.08165
aF-123.07049
aF-123.04882
aF-123.03873
aF-123.0351
aF-123.03384
aF-123.03144
aF-123.02585
aF-123.01697
aF-123.01059
aF-123.00615
aFnan
aF-119.00093
aF-119.00093
aF-118.99784
aF-118.99445
aF-118.9928
aF-118.99005
aF-118.9862
aF-118.98215
aF-118.9791
aF-118.97654
aF-118.97289
aF-118.97101
aF-118.96831
aF-118.96602
aF-118.9649
aF-118.96276
aF-118.96273
aF-118.96375
aF-118.96676
aF-118.96983
aF-118.97268
aF-118.97848
aF-118.98051
aF-118.98873
aF-118.99598
aF-119.00093
aF-119.00093
aF-119.00952
aF-119.018
aF-119.02704
aF-119.03963
aF-119.05307
aF-119.06412
aF-119.07189
aF-119.07851
aF-119.08651
aF-119.09413
aF-119.10076
aF-119.10378
aF-119.10615
aF-119.10888
aF-119.1088
aF-119.10965
aF-119.10908
aF-119.10957
aF-119.1092
aF-119.10836
aF-119.10791
aF-119.10747
aF-119.10794
aF-119.10721
aF-119.11895
aF-119.11717
aF-119.11508
aF-119.11166
aF-119.10872
aF-119.10421
aF-119.0987
aF-119.09049
aF-119.08374
aF-119.0765
aF-119.07014
aF-119.06616
aF-119.06041
aF-119.05655
aF-119.05394
aF-119.0508
aF-119.04847
aF-119.04706
aF-119.04139
aF-119.03625
aF-119.03074
aF-119.02394
aF-119.01735
aF-119.01213
aF-119.00807
aFnan
aF-118.3289
aF-118.32571
aF-118.31739
aF-118.30489
aF-118.2924
aF-118.28878
aF-118.2899
aF-118.29584
aF-118.30285
aF-118.31853
aF-118.33197
aF-118.35349
aF-118.36427
aF-118.37386
aF-118.37838
aF-118.3812
aF-118.38535
aF-118.39256
aF-118.39952
aF-118.40832
aF-118.4162
aF-118.43654
aF-118.44091
aF-118.45381
aF-118.46471
aF-118.47391
aF-118.48167
aF-118.48497
aF-118.49421
aF-118.50091
aF-118.50765
aF-118.51581
aF-118.52481
aF-118.53178
aF-118.5382
aF-118.54673
aF-118.55319
aF-118.55714
aF-118.56253
aF-118.56735
aF-118.57505
aF-118.58132
aF-118.58794
aF-118.59114
aF-118.59693
aF-118.60352
aF-118.60433
aF-118.60552
aF-118.60547
aF-118.60817
aF-118.61079
aF-118.6186
aF-118.62592
aF-118.62957
aF-118.63387
aF-118.63649
aF-118.63771
aF-118.64049
aF-118.64343
aF-118.64433
aF-118.67017
aF-118.67484
aF-118.67855
aF-118.6756
aF-118.66385
aF-118.6413
aF-118.62592
aF-118.60834
aF-118.58953
aF-118.56492
aF-118.55263
aF-118.53419
aF-118.51497
aF-118.50766
aF-118.50091
aF-118.49113
aF-118.48714
aF-118.48475
aF-118.48141
aF-118.47779
aF-118.47119
aF-118.46018
aF-118.45454
aF-118.44886
aF-118.44215
aF-118.42769
aF-118.41874
aF-118.41127
aF-118.40604
aF-118.39079
aF-118.38644
aF-118.38157
aF-118.37762
aF-118.37591
aF-118.36992
aF-118.36252
aF-118.35639
aF-118.35031
aF-118.34358
aF-118.33746
aF-118.33197
aFnan
aF-118.30868
aF-118.30713
aF-118.3041
aF-118.28581
aF-118.27721
aF-118.26818
aF-118.25771
aF-118.25138
aF-118.2451
aF-118.24105
aF-118.24594
aF-118.2509
aF-118.25918
aF-118.2807
aF-118.30284
aF-118.30872
aF-118.31862
aF-118.33475
aF-118.34377
aF-118.36331
aF-118.38149
aF-118.38913
aF-118.40256
aF-118.42752
aF-118.44046
aF-118.47146
aF-118.50091
aF-118.51039
aF-118.53488
aF-118.54252
aF-118.54961
aF-118.55119
aF-118.54858
aF-118.55338
aF-118.56363
aF-118.59108
aF-118.61857
aF-118.62592
aF-118.63694
aF-118.65506
aF-118.66592
aF-118.6682
aF-118.66371
aF-118.65992
aF-118.65573
aF-118.64786
aF-118.6384
aF-118.62592
aF-118.61216
aF-118.59976
aF-118.58972
aF-118.58582
aF-118.57914
aF-118.57529
aF-118.57152
aF-118.56719
aF-118.56317
aF-118.55775
aF-118.55502
aF-118.55093
aF-118.5466
aF-118.53894
aF-118.53364
aF-118.52938
aF-118.52324
aF-118.51765
aF-118.51238
aF-118.50676
aF-118.50261
aF-118.50091
aF-118.49671
aF-118.49333
aF-118.48788
aF-118.48262
aF-118.47728
aF-118.46896
aF-118.46285
aF-118.45682
aF-118.4522
aF-118.44755
aF-118.43683
aF-118.43243
aF-118.42709
aF-118.42287
aF-118.42084
aF-118.41187
aF-118.40323
aF-118.39513
aF-118.38939
aF-118.38605
aF-118.37798
aF-118.37591
aF-118.36922
aF-118.35939
aF-118.35255
aF-118.35092
aF-118.34206
aF-118.33277
aF-118.32465
aF-118.31635
aF-118.31095
aFnan
aF-119.37595
aF-119.33093
aF-119.29764
aF-119.29647
aF-119.30409
aF-119.34154
aF-119.36976
aF-119.38467
aF-119.40293
aF-119.43296
aF-119.47265
aF-119.49695
aF-119.52331
aF-119.56329
aF-119.59594
aF-119.61853
aF-119.64054
aF-119.66396
aF-119.68239
aF-119.71883
aF-119.75096
aF-119.77831
aF-119.81022
aF-119.85522
aF-119.87823
aF-119.90476
aF-119.91102
aF-119.95029
aF-120.00096
aF-120.01553
aF-120.04253
aF-120.08011
aF-120.12596
aF-120.15708
aF-120.183
aF-120.20238
aF-120.22963
aF-120.25097
aF-120.2777
aF-120.29187
aF-120.31739
aF-120.35863
aF-120.39564
aF-120.42259
aF-120.45579
aF-120.48815
aF-120.50308
aF-120.52314
aF-120.53106
aF-120.56699
aF-120.5819
aF-120.57509
aF-120.5487
aF-120.50717
aF-120.48691
aF-120.46529
aF-120.43272
aF-120.40117
aF-120.37598
aF-120.35049
aF-120.33918
aF-120.32434
aF-120.29779
aF-120.27428
aF-120.26241
aF-120.25285
aF-120.231
aF-120.20611
aF-120.1911
aF-120.15901
aF-120.13501
aF-120.11496
aF-120.10292
aF-120.08028
aF-120.04515
aF-120.01021
aF-119.99164
aF-119.97439
aF-119.96547
aF-119.93615
aF-119.90557
aF-119.87988
aF-119.86883
aF-119.83796
aF-119.7926
aF-119.76903
aF-119.74522
aF-119.71804
aF-119.68607
aF-119.65493
aF-119.63523
aF-119.62597
aF-119.59056
aF-119.57412
aF-119.54825
aF-119.52459
aF-119.50095
aF-119.47731
aF-119.46004
aF-119.42373
aF-119.38975
aFnan
aF-119.62594
aF-119.63128
aF-119.63163
aF-119.63154
aF-119.63284
aF-119.6363
aF-119.63479
aF-119.62908
aF-119.62165
aF-119.61453
aF-119.60482
aF-119.59252
aF-119.58268
aF-119.57491
aF-119.56493
aF-119.5546
aF-119.54354
aF-119.53418
aF-119.52531
aF-119.50855
aF-119.50094
aF-119.49512
aF-119.49054
aF-119.4713
aF-119.44327
aF-119.43
aF-119.42872
aF-119.42816
aF-119.42618
aF-119.42594
aF-119.4225
aF-119.41337
aF-119.40539
aF-119.39991
aF-119.39098
aF-119.38522
aF-119.37973
aF-119.37594
aF-119.37594
aF-119.36908
aF-119.36723
aF-119.36472
aF-119.36212
aF-119.36093
aF-119.36013
aF-119.36018
aF-119.3607
aF-119.36244
aF-119.3654
aF-119.36845
aF-119.37196
aF-119.37386
aF-119.37594
aF-119.37899
aF-119.38146
aF-119.38614
aF-119.39454
aF-119.43372
aF-119.44497
aF-119.46836
aF-119.47223
aF-119.47526
aF-119.47649
aF-119.47874
aF-119.47959
aF-119.48944
aF-119.49142
aF-119.50094
aF-119.50803
aF-119.51025
aF-119.512
aF-119.51688
aF-119.52286
aF-119.52671
aF-119.52901
aF-119.53224
aF-119.54126
aF-119.54676
aF-119.55007
aF-119.55154
aF-119.55319
aF-119.55495
aF-119.56224
aF-119.56932
aF-119.57419
aF-119.57832
aF-119.58097
aF-119.58726
aF-119.58909
aF-119.59395
aF-119.60026
aF-119.60528
aF-119.61147
aF-119.61481
aF-119.61824
aF-119.61949
aF-119.61992
aF-119.62092
aF-119.62192
aF-119.62356
aF-119.62519
aFnan
aF-114.63332
aF-114.63305
aF-114.56953
aF-114.48236
aF-114.44166
aF-114.38169
aF-114.29195
aF-114.14737
aF-114.26017
aF-114.35765
aF-114.4355
aF-114.49813
aF-114.51318
aF-114.52801
aF-114.49649
aF-114.5402
aF-114.61185
aF-114.72123
aF-114.68157
aF-114.62973
aF-114.48131
aF-114.46563
aF-114.58576
aF-114.63501
aF-114.69096
aF-114.71919
aF-114.71972
aF-114.9559
aF-115.47927
aF-115.50314
aF-115.80199
aF-116.0738
aF-116.19899
aF-116.3481
aF-116.46732
aF-116.61646
aF-116.75596
aF-116.82902
aF-116.95778
aF-117.02945
aF-117.06674
aF-117.22314
aF-117.30735
aF-117.34004
aF-117.37526
aF-117.57153
aF-117.71501
aF-117.81636
aF-117.94957
aF-118.06299
aF-118.34541
aF-118.51367
aF-118.62007
aF-118.74596
aF-118.87592
aF-119.22693
aF-119.33489
aF-119.56331
aF-119.73923
aF-119.90542
aF-120.12095
aF-120.24944
aF-120.42603
aF-120.56388
aF-120.6724
aF-120.70856
aF-120.683
aF-120.68251
aF-120.73438
aF-120.6942
aF-120.78292
aF-120.96025
aF-120.93094
aF-121.05951
aF-121.25103
aF-121.4561
aF-121.7489
aF-121.86514
aF-121.92971
aF-121.96481
aF-121.97196
aF-121.98576
aF-122.022
aF-122.04406
aF-122.06832
aF-122.27637
aF-122.4452
aF-122.47161
aF-122.56299
aF-122.57267
aF-122.63247
aF-122.78903
aF-122.89742
aF-123.08461
aF-123.12347
aF-123.18504
aF-123.3304
aF-123.49508
aF-123.7253
aF-123.76207
aF-123.80553
aF-123.84839
aF-123.89494
aF-123.88889
aF-123.83841
aF-123.87391
aF-123.9536
aF-124.06357
aF-124.2312
aF-124.42868
aF-124.47916
aF-124.33411
aF-124.1945
aF-124.2151
aF-124.24743
aF-124.25119
aF-124.21142
aF-124.17435
aF-124.19233
aF-124.23454
aF-124.23517
aF-124.14406
aF-124.15357
aF-124.22986
aF-124.41076
aF-124.31194
aF-124.32829
aF-124.32883
aF-124.11879
aF-123.96782
aF-123.79381
aF-123.62007
aF-123.51413
aF-123.2737
aF-123.03178
aF-122.78389
aF-122.64619
aF-122.40756
aF-122.18647
aF-122.00032
aF-121.81573
aF-121.70538
aF-121.6122
aF-121.51946
aF-121.43715
aF-121.36025
aF-121.26065
aF-120.97395
aF-120.76508
aF-120.60306
aF-120.30731
aF-120.19996
aF-120.00104
aF-119.99917
aF-119.99919
aF-120.00002
aF-119.99926
aF-119.99567
aF-119.99733
aF-120.00049
aF-120.0015
aF-120.00608
aF-119.9748
aF-119.76041
aF-119.43506
aF-119.00097
aF-118.51722
aF-118.22972
aF-118.04392
aF-117.79563
aF-117.31883
aF-116.87227
aF-116.37528
aF-116.08072
aF-115.89512
aF-115.65233
aF-115.36992
aF-115.11622
aF-114.82052
aF-114.63361
aF-114.63349
aa(lp24
F-87.58552
aF-87.59581
aF-87.62123
aF-87.6272
aF-87.60348
aF-87.56787
aF-87.53522
aF-87.48362
aF-87.43361
aF-87.3937
aF-87.40874
aF-87.42605
aF-87.44629
aF-87.43258
aF-87.39878
aF-87.45538
aF-87.45238
aF-87.56704
aF-87.59954
aF-87.62502
aF-87.66035
aF-87.68364
aF-87.718
aF-87.74999
aF-87.7972
aF-87.80715
aF-87.81126
aF-87.83167
aF-87.83742
aF-87.87499
aF-87.92576
aF-87.95565
aF-87.97171
aF-87.98088
aF-87.98089
aF-87.98104
aF-87.98377
aF-87.98646
aF-87.98741
aF-87.99042
aF-87.99375
aF-87.99724
aF-87.99999
aF-88.0
aF-88.00362
aF-88.00604
aF-88.0098
aF-88.01416
aF-88.02025
aF-88.02077
aF-88.02804
aF-88.03673
aF-88.03731
aF-88.04149
aF-88.0461
aF-88.05709
aF-88.06069
aF-88.06919
aF-88.07487
aF-88.08035
aF-88.08694
aF-88.09022
aF-88.09276
aF-88.09911
aF-88.10342
aF-88.10674
aF-88.10918
aF-88.1125
aF-88.1156
aF-88.11815
aF-88.12162
aF-88.125
aF-88.1285
aF-88.13161
aF-88.13411
aF-88.13837
aF-88.14115
aF-88.14346
aF-88.14539
aF-88.14619
aF-88.14919
aF-88.15197
aF-88.15348
aF-88.15763
aF-88.1612
aF-88.16174
aF-88.16202
aF-88.16204
aF-88.16263
aF-88.16749
aF-88.17564
aF-88.18498
aF-88.1916
aF-88.19908
aF-88.20501
aF-88.21
aF-88.21631
aF-88.23436
aF-88.25
aF-88.25337
aF-88.26659
aF-88.27794
aF-88.29119
aF-88.30302
aF-88.3103
aF-88.31932
aF-88.32493
aF-88.33131
aF-88.33804
aF-88.34378
aF-88.34772
aF-88.34994
aF-88.35381
aF-88.35976
aF-88.36475
aF-88.37116
aF-88.37501
aF-88.38112
aF-88.38443
aF-88.4032
aF-88.40594
aF-88.40994
aF-88.41484
aF-88.42283
aF-88.43417
aF-88.44058
aF-88.44989
aF-88.46455
aF-88.47205
aF-88.45498
aF-88.43052
aF-88.39953
aF-88.36033
aF-88.31523
aF-88.28006
aF-88.25893
aF-88.23343
aF-88.2166
aF-88.17927
aF-88.15726
aF-88.13023
aF-88.10789
aF-88.09899
aF-88.20006
aF-88.20006
aF-88.20029
aF-88.12503
aF-87.98398
aF-87.86063
aF-87.7624
aF-87.62391
aF-87.50511
aF-87.4185
aF-87.38466
aF-87.31998
aF-87.23865
aF-87.14463
aF-86.99835
aF-86.90491
aF-86.83631
aF-86.77754
aF-86.72891
aF-86.67764
aF-86.62721
aF-86.55577
aF-86.46906
aF-86.40235
aF-86.22574
aF-85.9678
aF-85.82402
aF-85.61056
aF-85.60516
aF-85.60383
aF-85.51807
aF-85.4583
aF-85.35261
aF-85.21858
aF-85.1593
aF-85.1256
aF-85.12244
aF-85.10504
aF-85.10453
aF-85.09045
aF-84.99947
aF-84.97727
aF-84.90525
aF-84.92353
aF-84.97443
aF-85.05406
aF-85.08413
aF-85.13013
aF-85.12723
aF-85.10163
aF-85.05528
aF-85.07998
aF-85.11216
aF-85.06243
aF-85.00227
aF-85.0025
aF-85.15234
aF-85.49265
aF-86.02421
aF-86.3694
aF-86.67211
aF-87.03714
aF-87.31233
aF-87.44355
aF-87.58143
aa(lp25
F-94.26958
aF-94.30425
aF-94.34879
aF-94.40149
aF-94.41733
aF-94.46748
aF-94.46124
aF-94.46335
aF-94.48588
aF-94.48588
aF-94.48144
aF-94.47881
aF-94.47446
aF-94.46859
aF-94.46544
aF-94.46508
aF-94.46384
aF-94.45745
aF-94.44997
aF-94.44879
aF-94.44102
aF-94.43777
aF-94.43512
aF-94.43395
aF-94.43231
aF-94.43321
aF-94.46007
aF-94.47872
aF-94.4991
aF-94.51826
aF-94.53257
aF-94.5563
aF-94.57602
aF-94.5934
aF-94.61777
aF-94.61792
aF-94.61783
aF-94.17324
aF-93.72767
aF-93.43057
aF-93.07829
aF-92.7961
aF-92.29101
aF-91.93252
aF-91.60228
aF-91.41595
aF-90.90498
aF-90.60848
aF-90.32657
aF-90.15565
aF-90.13535
aF-90.06835
aF-90.07415
aF-90.10892
aF-90.13603
aF-90.19301
aF-90.23527
aF-90.27605
aF-90.33299
aF-90.37789
aF-90.13255
aF-89.73345
aF-89.73309
aF-89.73304
aF-89.68002
aF-89.71528
aF-89.79855
aF-89.88683
aF-89.95807
aF-89.88592
aF-89.87786
aF-89.94868
aF-89.94565
aF-89.90855
aF-89.94016
aF-89.95853
aF-89.98542
aF-90.02667
aF-90.05002
aF-90.03102
aF-90.0679
aF-90.11368
aF-90.14507
aF-90.11122
aF-90.13453
aF-90.13212
aF-90.10552
aF-90.20033
aF-90.30942
aF-90.30929
aF-90.30779
aF-90.30553
aF-90.42932
aF-90.4669
aF-90.50152
aF-90.54038
aF-90.46844
aF-90.54965
aF-90.58329
aF-90.56583
aF-90.67677
aF-90.83802
aF-90.86456
aF-90.89003
aF-90.96686
aF-91.07223
aF-91.06749
aF-91.0317
aF-91.16979
aF-91.17114
aF-91.19986
aF-91.10567
aF-91.12544
aF-91.05695
aF-91.19812
aF-91.16607
aF-91.16607
aF-91.16678
aF-91.3189
aF-91.37409
aF-91.48868
aF-91.62753
aF-91.88448
aF-92.10257
aF-92.23215
aF-92.28058
aF-92.34672
aF-92.42918
aF-92.521
aF-92.54423
aF-92.66297
aF-92.72216
aF-92.81184
aF-92.91975
aF-93.10172
aF-93.20515
aF-93.31438
aF-93.37442
aF-93.47987
aF-93.66171
aF-93.84706
aF-93.97693
aF-94.04273
aF-94.04296
aF-94.04311
aF-94.04299
aF-94.04307
aF-94.04313
aF-94.04313
aF-94.04309
aF-94.04311
aF-94.04312
aF-94.04312
aF-94.04311
aF-94.04484
aF-94.0714
aF-94.07521
aF-94.13238
aF-94.17241
aF-94.19515
aF-94.23197
aF-94.26926
aa(lp26
F-72.79108
aF-72.85487
aF-72.87454
aF-72.92356
aF-72.92862
aF-72.97955
aF-73.01864
aF-73.05437
aF-73.07151
aF-73.09759
aF-73.11981
aF-73.18186
aF-73.21043
aF-73.21493
aF-73.2606
aF-73.26496
aF-73.27642
aF-73.26903
aF-73.25123
aF-73.24161
aF-73.26072
aF-73.2879
aF-73.30208
aF-73.35974
aF-73.38525
aF-73.4235
aF-73.40727
aF-73.37258
aF-73.3754
aF-73.37416
aF-73.40944
aF-73.41479
aF-73.39057
aF-73.32441
aF-73.29948
aF-73.31446
aF-73.33091
aF-73.36823
aF-73.37238
aF-73.35206
aF-73.37355
aF-73.34312
aF-73.33547
aF-73.3079
aF-73.29647
aF-73.28053
aF-73.24269
aF-73.21061
aF-73.19268
aF-73.17202
aF-73.13357
aF-73.0908
aF-73.0648
aF-73.05236
aF-73.0253
aF-73.0146
aF-73.01342
aF-73.01016
aF-72.99699
aF-72.97802
aF-72.94361
aF-72.93047
aF-72.90305
aF-72.8863
aF-72.84253
aF-72.82673
aF-72.78178
aF-72.7508
aF-72.71728
aF-72.70265
aF-72.67345
aF-72.66739
aF-72.64182
aF-72.62176
aF-72.58988
aF-72.58603
aF-72.58384
aF-72.5788
aF-72.55436
aF-72.49956
aF-72.44959
aF-72.44284
aF-72.43349
aF-72.41051
aF-72.40589
aF-72.40268
aF-72.40084
aF-72.3963
aF-72.38784
aF-72.3753
aF-72.36749
aF-72.36613
aF-72.35944
aF-72.34245
aF-72.2817
aF-72.27087
aF-72.2567
aF-72.24674
aF-72.22634
aF-72.21124
aF-72.19357
aF-72.18163
aF-72.16051
aF-72.15581
aF-72.1474
aF-72.13644
aF-72.11221
aF-72.1112
aF-72.10992
aF-72.10754
aF-72.10572
aF-72.10306
aF-72.09798
aF-72.09492
aF-72.0908
aF-72.08786
aF-72.08277
aF-72.05217
aF-72.02896
aF-71.98838
aF-71.97915
aF-71.97751
aF-71.9472
aF-71.94647
aF-71.91537
aF-71.89745
aF-71.86434
aF-71.82178
aF-71.79669
aF-71.79483
aF-71.79286
aF-71.73328
aF-71.6897
aF-71.64297
aF-71.63851
aF-71.6341
aF-71.60984
aF-71.59589
aF-71.58901
aF-71.55702
aF-71.55662
aF-71.50536
aF-71.50124
aF-71.50109
aF-71.53521
aF-71.50972
aF-71.55303
aF-71.61868
aF-71.5515
aF-71.57189
aF-71.63829
aF-71.80349
aF-72.00009
aF-72.05867
aF-72.06389
aF-72.05257
aF-72.09302
aF-72.09098
aF-72.18222
aF-72.24088
aF-72.30597
aF-72.38269
aF-72.41469
aF-72.4387
aF-72.4381
aF-72.45751
aF-72.53079
aF-72.54461
aF-72.45829
aF-72.45844
aF-72.46194
aF-72.46457
aF-72.56587
aF-72.57333
aF-72.60156
aF-72.61349
aF-72.66115
aF-72.67645
aF-72.69266
aF-72.72136
aF-72.76225
aa(lp27
F-91.42578
aF-91.42651
aF-91.51163
aF-91.44477
aF-91.41942
aF-91.41896
aF-91.38119
aF-91.1082
aF-90.99292
aF-90.9608
aF-91.05435
aF-91.07379
aF-91.04765
aF-90.97099
aF-90.90029
aF-90.82474
aF-90.72354
aF-90.60191
aF-90.51397
aF-90.42469
aF-90.3408
aF-90.321
aF-90.28455
aF-90.18088
aF-90.17049
aF-90.1481
aF-90.1615
aF-90.35696
aF-90.42216
aF-90.49133
aF-90.64127
aF-90.64093
aF-90.5618
aF-90.50006
aF-90.29416
aF-90.1518
aF-89.96124
aF-89.83682
aF-89.71432
aF-89.60795
aF-89.54239
aF-89.39616
aF-89.30698
aF-89.16601
aF-89.11703
aF-89.0547
aF-89.02503
aF-89.00206
aF-88.93177
aF-88.74683
aF-88.51576
aF-88.33826
aF-88.27166
aF-88.20645
aF-88.10268
aF-87.93137
aF-87.8156
aF-87.80966
aF-87.01993
aF-87.02116
aF-87.04921
aF-87.06804
aF-87.08834
aF-87.10152
aF-87.10417
aF-87.11116
aF-87.11762
aF-87.12504
aF-87.12504
aF-87.13085
aF-87.13179
aF-87.15001
aF-87.14875
aF-87.15175
aF-87.16505
aF-87.17008
aF-87.17179
aF-87.17235
aF-87.17323
aF-87.17937
aF-87.18433
aF-87.18485
aF-87.18636
aF-87.20218
aF-87.20644
aF-87.20777
aF-87.52462
aF-87.52459
aF-87.5259
aF-87.5259
aF-87.52665
aF-87.52635
aF-87.52578
aF-87.52626
aF-87.52631
aF-87.52749
aF-87.52976
aF-87.53214
aF-87.53313
aF-87.53171
aF-87.60875
aF-87.65331
aF-87.5614
aF-87.53652
aF-87.49895
aF-87.63998
aF-87.75283
aF-87.86396
aF-87.94207
aF-87.92823
aF-88.00863
aF-88.07377
aF-88.02803
aF-88.02971
aF-88.07462
aF-88.13119
aF-88.15384
aF-88.12993
aF-88.06417
aF-88.09116
aF-88.19402
aF-88.30753
aF-88.35666
aF-88.48227
aF-88.51451
aF-88.50507
aF-88.46708
aF-88.43465
aF-88.54857
aF-88.60369
aF-88.67805
aF-88.73373
aF-88.81508
aF-88.92301
aF-89.00241
aF-89.0782
aF-89.11818
aF-89.17193
aF-89.13894
aF-89.13427
aF-89.29896
aF-89.37645
aF-89.5176
aF-89.4544
aF-89.51597
aF-89.60807
aF-89.67462
aF-89.79814
aF-89.90423
aF-89.96033
aF-90.0495
aF-90.11412
aF-90.32038
aF-90.35319
aF-90.17831
aF-90.15464
aF-90.38361
aF-90.47924
aF-90.58502
aF-90.72178
aF-91.02998
aF-91.3316
aa(lp28
F-81.12387
aF-81.15654
aF-81.02071
aF-80.75203
aF-80.75483
aF-80.76977
aF-80.78069
aF-80.78124
aF-80.78241
aF-80.78346
aF-80.78597
aF-80.78984
aF-80.81461
aF-80.83501
aF-80.86529
aF-80.87962
aF-80.89699
aF-80.91782
aF-80.94245
aF-80.9731
aF-80.99209
aF-80.9972
aF-81.01381
aF-81.04979
aF-81.06583
aF-81.07912
aF-81.08582
aF-81.09236
aF-81.10048
aF-81.10666
aF-81.11948
aF-81.12653
aF-81.13901
aF-81.14674
aF-81.15165
aF-81.15958
aF-81.16274
aF-81.16321
aF-81.16599
aF-81.1703
aF-81.174
aF-81.17727
aF-81.18219
aF-81.18616
aF-81.19076
aF-81.18581
aF-81.1788
aF-81.17387
aF-81.17216
aF-81.17198
aF-81.17712
aF-81.1854
aF-81.18611
aF-81.18335
aF-81.18468
aF-81.18394
aF-81.18264
aF-81.18612
aF-81.19614
aF-81.20507
aF-81.21256
aF-81.21758
aF-81.22511
aF-81.23816
aF-81.24979
aF-81.25729
aF-81.27962
aF-81.29642
aF-81.29263
aF-81.28987
aF-81.28841
aF-81.28588
aF-81.28746
aF-81.29787
aF-81.31364
aF-81.32617
aF-81.33922
aF-81.35342
aF-81.33794
aF-81.32703
aF-81.31766
aF-81.31303
aF-81.30478
aF-81.30483
aF-81.31753
aF-81.3349
aF-81.34624
aF-81.34911
aF-81.35543
aF-81.35944
aF-81.36268
aF-81.36752
aF-81.3731
aF-81.38536
aF-81.38695
aF-81.39146
aF-81.39936
aF-81.3913
aF-81.37961
aF-81.37481
aF-81.36972
aF-81.35477
aF-81.35025
aF-81.3473
aF-81.34701
aF-81.59965
aF-81.68329
aF-81.77197
aF-81.88472
aF-81.96184
aF-82.01729
aF-82.04309
aF-82.0273
aF-82.01304
aF-82.01811
aF-82.04357
aF-82.06348
aF-82.11119
aF-82.14697
aF-82.18128
aF-82.20312
aF-82.20979
aF-82.20725
aF-82.20611
aF-82.23739
aF-82.65847
aF-83.83189
aF-84.68652
aF-84.9273
aF-85.00244
aF-85.0025
aF-85.00227
aF-85.06243
aF-85.11216
aF-85.07998
aF-85.05528
aF-85.10163
aF-85.12723
aF-85.13013
aF-85.08413
aF-85.05406
aF-84.97443
aF-84.92353
aF-84.90525
aF-84.97727
aF-84.99947
aF-85.09045
aF-85.10453
aF-85.10504
aF-85.12244
aF-85.1256
aF-85.1593
aF-85.21858
aF-85.35261
aF-85.4583
aF-85.51807
aF-85.60383
aF-85.60516
aF-85.60495
aF-85.5219
aF-85.45921
aF-85.40827
aF-85.36034
aF-85.32395
aF-85.30073
aF-85.27286
aF-85.24754
aF-85.22345
aF-85.19582
aF-85.15782
aF-85.11935
aF-85.10191
aF-85.04505
aF-84.97928
aF-84.93036
aF-84.85683
aF-84.77952
aF-84.71811
aF-84.63645
aF-84.57298
aF-84.48745
aF-84.38684
aF-84.36072
aF-84.32372
aF-84.32187
aF-84.32092
aF-84.2735
aF-84.2403
aF-84.19786
aF-84.16361
aF-84.12832
aF-84.08751
aF-84.06241
aF-84.03039
aF-83.99616
aF-83.96682
aF-83.95108
aF-83.92121
aF-83.89374
aF-83.8311
aF-83.80948
aF-83.77868
aF-83.73008
aF-83.6871
aF-83.61899
aF-83.54938
aF-83.42705
aF-83.36004
aF-83.32037
aF-83.21237
aF-83.10871
aF-83.10861
aF-83.11182
aF-83.21382
aF-83.28974
aF-83.3539
aF-83.14178
aF-82.95653
aF-82.84754
aF-82.77711
aF-82.65731
aF-82.51295
aF-82.19481
aF-81.9308
aF-81.89274
aF-81.83318
aF-81.77843
aF-81.56034
aF-81.42985
aF-81.3286
aF-81.23287
aF-81.19839
aF-81.17303
aF-81.14386
aF-81.12385
aa(lp29
F-87.5259
aF-87.52459
aF-87.52462
aF-87.20777
aF-87.19123
aF-86.81428
aF-86.78346
aF-86.68846
aF-86.53252
aF-86.50878
aF-86.37451
aF-86.27249
aF-86.24123
aF-86.20247
aF-86.06257
aF-85.96271
aF-85.87764
aF-85.79051
aF-85.70689
aF-85.62941
aF-85.51562
aF-85.36831
aF-85.27301
aF-85.1846
aF-85.09759
aF-85.05878
aF-84.98948
aF-84.86615
aF-84.80585
aF-84.806
aF-84.80597
aF-84.80597
aF-84.8056
aF-84.80499
aF-84.80421
aF-84.80393
aF-84.80388
aF-84.80359
aF-84.80338
aF-84.80333
aF-84.8032
aF-84.80269
aF-84.8023
aF-84.80219
aF-84.80251
aF-84.80346
aF-84.80389
aF-84.8039
aF-84.80607
aF-84.81161
aF-84.81413
aF-84.8146
aF-84.81505
aF-84.81743
aF-84.81921
aF-84.81983
aF-84.82016
aF-84.82016
aF-84.82052
aF-84.83028
aF-84.7847
aF-84.96416
aF-85.19391
aF-85.43405
aF-85.56105
aF-85.6373
aF-85.77291
aF-85.84753
aF-85.90735
aF-86.06173
aF-86.33851
aF-86.52383
aF-86.64777
aF-86.76522
aF-86.89009
aF-87.06197
aF-87.2195
aF-87.37271
aF-87.44805
aF-87.53595
aF-87.60194
aF-87.68035
aF-87.83058
aF-88.0266
aF-88.02803
aF-88.07377
aF-88.00863
aF-87.92823
aF-87.94207
aF-87.86396
aF-87.75283
aF-87.63998
aF-87.49895
aF-87.53652
aF-87.5614
aF-87.65331
aF-87.60875
aF-87.53171
aF-87.53313
aF-87.53214
aF-87.52976
aF-87.52749
aF-87.52631
aF-87.52626
aF-87.52578
aF-87.52635
aF-87.52665
aF-87.5259
aa(lp30
F-95.84917
aF-95.84983
aF-95.82779
aF-95.87425
aF-95.88262
aF-95.92339
aF-95.91746
aF-95.90741
aF-95.89245
aF-95.91817
aF-95.92987
aF-96.01059
aF-96.08396
aF-96.09276
aF-96.0846
aF-96.09494
aF-96.06503
aF-96.14605
aF-96.13917
aF-96.18955
aF-96.23027
aF-96.27217
aF-96.32021
aF-96.35062
aF-96.32457
aF-96.3813
aF-96.44548
aF-96.44551
aF-96.50082
aF-96.56633
aF-96.59911
aF-96.628
aF-96.6223
aF-96.61132
aF-96.58379
aF-96.5555
aF-96.53314
aF-96.51918
aF-96.50208
aF-96.49605
aF-96.4568
aF-96.45551
aF-96.4651
aF-96.49245
aF-96.57141
aF-96.58303
aF-96.5457
aF-96.53193
aF-96.52549
aF-96.55664
aF-96.59931
aF-96.5848
aF-96.45397
aF-96.45326
aF-96.45325
aF-96.24365
aF-96.11641
aF-95.84386
aF-95.6825
aF-95.45461
aF-95.22238
aF-95.05815
aF-94.87268
aF-94.66761
aF-94.40023
aF-94.18803
aF-93.90833
aF-93.5688
aF-93.41061
aF-93.14917
aF-92.94434
aF-92.732
aF-92.53622
aF-92.35243
aF-92.1557
aF-91.97891
aF-91.80709
aF-91.59098
aF-91.32771
aF-91.21777
aF-91.21771
aF-91.21774
aF-91.23268
aF-91.1978
aF-91.21327
aF-91.14022
aF-91.08143
aF-91.08001
aF-91.13999
aF-91.17736
aF-91.17612
aF-91.1568
aF-91.14425
aF-91.12316
aF-91.09882
aF-91.09406
aF-91.07931
aF-91.07075
aF-91.06286
aF-91.04603
aF-91.00427
aF-90.93286
aF-90.86453
aF-90.75936
aF-90.68045
aF-90.6418
aF-90.64002
aF-90.64093
aF-90.64127
aF-90.49133
aF-90.42216
aF-90.35696
aF-90.1615
aF-90.1481
aF-90.17049
aF-90.18088
aF-90.28455
aF-90.321
aF-90.3408
aF-90.42469
aF-90.51397
aF-90.60191
aF-90.72354
aF-90.82474
aF-90.90029
aF-90.97099
aF-91.04765
aF-91.07379
aF-91.05435
aF-90.9608
aF-90.99292
aF-91.1082
aF-91.38119
aF-91.41896
aF-91.41942
aF-91.41998
aF-91.48886
aF-91.525
aF-91.62135
aF-91.74087
aF-92.03779
aF-92.19616
aF-92.33694
aF-92.55937
aF-92.88996
aF-93.07262
aF-93.25169
aF-93.29205
aF-93.34719
aF-93.37429
aF-93.56518
aF-93.7519
aF-93.92048
aF-94.09108
aF-94.39537
aF-94.54165
aF-94.73362
aF-94.93691
aF-95.2228
aF-95.53433
aF-95.76455
aF-95.76564
aa(lp31
F-72.64313
aF-72.64329
aF-72.75134
aF-72.75203
aF-72.75707
aF-72.76486
aF-72.7591
aF-72.76177
aF-72.81703
aF-72.91628
aF-73.04828
aF-73.13059
aF-73.19781
aF-73.27508
aF-73.33687
aF-73.42605
aF-73.48731
aF-73.48739
aF-73.50775
aF-73.49467
aF-73.48011
aF-73.47025
aF-73.45443
aF-73.44827
aF-73.41917
aF-73.41386
aF-73.41175
aF-73.41088
aF-73.40134
aF-73.39798
aF-73.3926
aF-73.38202
aF-73.37519
aF-73.37174
aF-73.36905
aF-73.36341
aF-73.35709
aF-73.34314
aF-73.32907
aF-73.3227
aF-73.3147
aF-73.27876
aF-73.26553
aF-73.26496
aF-73.2606
aF-73.21493
aF-73.21043
aF-73.18186
aF-73.11981
aF-73.09759
aF-73.07151
aF-73.05437
aF-73.01864
aF-72.97955
aF-72.92862
aF-72.92356
aF-72.87454
aF-72.85487
aF-72.79108
aF-72.76225
aF-72.72136
aF-72.69266
aF-72.67645
aF-72.66115
aF-72.61349
aF-72.60156
aF-72.57333
aF-72.56587
aF-72.46457
aF-72.46194
aF-72.45844
aF-72.45819
aF-72.37299
aF-72.22286
aF-72.08588
aF-72.01069
aF-71.9618
aF-71.81162
aF-71.66491
aF-71.54741
aF-71.47433
aF-71.42354
aF-71.34818
aF-71.28879
aF-71.22616
aF-71.1977
aF-71.18521
aF-71.11392
aF-71.07206
aF-71.04967
aF-71.0044
aF-70.98147
aF-70.94388
aF-70.90277
aF-70.87102
aF-70.83079
aF-70.735
aF-70.73864
aF-70.74883
aF-70.74397
aF-70.73625
aF-70.7344
aF-70.73397
aF-70.73722
aF-70.73092
aF-70.72621
aF-70.71696
aF-70.62594
aF-70.50214
aF-70.56699
aF-70.64807
aF-70.68902
aF-70.66281
aF-70.64295
aF-70.4148
aF-70.24947
aF-70.17254
aF-70.12447
aF-70.01159
aF-69.94064
aF-69.8953
aF-69.87446
aF-69.86557
aF-69.86237
aF-69.85895
aF-69.87106
aF-69.88942
aF-69.9162
aF-69.92899
aF-69.96861
aF-69.99817
aF-70.02014
aF-70.0849
aF-70.12492
aF-70.12679
aF-70.09493
aF-70.06857
aF-70.06857
aF-70.09422
aF-70.13849
aF-70.1815
aF-70.21464
aF-70.24946
aF-70.29933
aF-70.34634
aF-70.38728
aF-70.4173
aF-70.45763
aF-70.48974
aF-70.5086
aF-70.49166
aF-70.47599
aF-70.40593
aF-70.38216
aF-70.35308
aF-70.29418
aF-70.24769
aF-70.22162
aF-70.18729
aF-70.13223
aF-70.09784
aF-70.11654
aF-70.06517
aF-69.99464
aF-69.96406
aF-69.93846
aF-69.91495
aF-69.89488
aF-69.89221
aF-69.89901
aF-69.93095
aF-69.98315
aF-70.05165
aF-70.13585
aF-70.228
aF-70.33509
aF-70.38667
aF-70.44476
aF-70.5122
aF-70.57185
aF-70.6312
aF-70.67168
aF-70.69287
aF-70.71106
aF-70.73406
aF-70.74431
aF-70.80595
aF-70.87733
aF-70.8942
aF-70.87447
aF-70.89136
aF-70.90374
aF-70.9026
aF-70.95575
aF-71.00631
aF-71.02903
aF-71.03811
aF-71.08504
aF-71.08857
aF-71.12533
aF-71.13851
aF-71.13334
aF-71.15105
aF-71.18591
aF-71.1976
aF-71.28991
aF-71.32896
aF-71.33039
aF-71.33102
aF-71.33372
aF-71.34127
aF-71.34629
aF-71.3421
aF-71.3396
aF-71.36469
aF-71.3816
aF-71.38152
aF-71.3815
aF-71.45
aF-71.50716
aF-71.5446
aF-71.60598
aF-71.70489
aF-71.79022
aF-71.79924
aF-71.82387
aF-71.87297
aF-71.95441
aF-72.02966
aF-72.10639
aF-72.17549
aF-72.32182
aF-72.45609
aF-72.57337
aF-72.60487
aa(lp32
F-114.63332
aF-114.63349
aF-114.63423
aF-114.60899
aF-114.63064
aF-114.57354
aF-114.58031
aF-114.61121
aF-114.6768
aF-114.66076
aF-114.65449
aF-114.68702
aF-114.69704
aF-114.70415
aF-114.67489
aF-114.70883
aF-114.74365
aF-114.73513
aF-114.6729
aF-114.51122
aF-114.32346
aF-114.22646
aF-114.1139
aF-114.04404
aF-114.04338
aF-114.04736
aF-114.05014
aF-114.0506
aF-114.0506
aF-114.05052
aF-113.94557
aF-113.86852
aF-113.62465
aF-113.4727
aF-113.32097
aF-113.17698
aF-113.02079
aF-112.99281
aF-112.96895
aF-112.75086
aF-112.48455
aF-112.32985
aF-111.99142
aF-111.58602
aF-111.39598
aF-111.2523
aF-111.03957
aF-110.73783
aF-110.54945
aF-110.272
aF-110.13851
aF-109.83491
aF-109.43568
aF-109.26993
aF-109.04538
aF-109.04522
aF-109.04522
aF-109.04531
aF-109.04544
aF-109.04547
aF-109.04579
aF-109.04575
aF-109.04601
aF-109.04578
aF-109.04606
aF-109.04621
aF-109.04636
aF-109.04662
aF-109.04644
aF-109.04598
aF-109.04603
aF-109.04633
aF-109.04692
aF-109.047
aF-109.04691
aF-109.0474
aF-109.04762
aF-109.04764
aF-109.04811
aF-109.04905
aF-109.04911
aF-109.05004
aF-109.0587
aF-109.25062
aF-109.30069
aF-109.33682
aF-109.38186
aF-109.45105
aF-109.5287
aF-109.62562
aF-109.79302
aF-109.97582
aF-110.20503
aF-110.49327
aF-110.56918
aF-110.65415
aF-110.77828
aF-110.87564
aF-110.93778
aF-110.94286
aF-110.97553
aF-111.12565
aF-111.24082
aF-111.29191
aF-111.32558
aF-111.3574
aF-111.38483
aF-111.44337
aF-111.47861
aF-111.49725
aF-111.53479
aF-111.56975
aF-111.62412
aF-111.66
aF-111.73365
aF-111.79498
aF-111.9182
aF-111.97172
aF-111.99115
aF-112.02937
aF-112.09379
aF-112.13972
aF-112.15906
aF-112.21295
aF-112.32605
aF-112.39932
aF-112.43603
aF-112.52208
aF-112.57141
aF-112.63294
aF-112.67695
aF-112.72356
aF-112.75567
aF-112.8055
aF-112.83423
aF-112.8711
aF-112.90863
aF-113.20884
aF-113.2279
aF-113.30314
aF-113.61086
aF-113.78489
aF-113.90756
aF-113.97121
aF-114.11135
aF-114.20719
aF-114.25559
aF-114.28755
aF-114.38472
aF-114.61337
aF-114.77804
aF-114.81394
aF-114.81518
aF-114.80524
aF-114.81037
aF-114.81335
aF-114.80551
aF-114.80529
aF-114.79282
aF-114.79206
aF-114.79555
aF-114.81362
aF-114.80894
aF-114.80404
aF-114.80093
aF-114.80804
aF-114.80891
aF-114.80192
aF-114.79518
aF-114.7819
aF-114.77309
aF-114.76427
aF-114.74805
aF-114.74638
aF-114.74505
aF-114.74456
aF-114.74203
aF-114.74
aF-114.73874
aF-114.73062
aF-114.72924
aF-114.72377
aF-114.71994
aF-114.71919
aF-114.69096
aF-114.63501
aF-114.58576
aF-114.46563
aF-114.48131
aF-114.62973
aF-114.68157
aF-114.72123
aF-114.61185
aF-114.5402
aF-114.49649
aF-114.52801
aF-114.51318
aF-114.49813
aF-114.4355
aF-114.35765
aF-114.26017
aF-114.14737
aF-114.29195
aF-114.38169
aF-114.44166
aF-114.48236
aF-114.56953
aF-114.63305
aa(lp33
F-117.02653
aF-117.02682
aF-116.98544
aF-116.95804
aF-117.02756
aF-117.18981
aF-117.21535
aF-117.12982
aF-117.04624
aF-116.91095
aF-116.84184
aF-116.84323
aF-116.72418
aF-116.67231
aF-116.64142
aF-116.59288
aF-116.5582
aF-116.5292
aF-116.48287
aF-116.48747
aF-116.53639
aF-116.586
aF-116.68707
aF-116.78785
aF-116.91599
aF-116.91593
aF-116.95737
aF-116.93511
aF-116.97129
aF-117.0225
aF-117.05352
aF-117.03977
aF-117.03968
aF-117.03968
aF-117.03983
aF-117.0395
aF-117.03971
aF-117.03992
aF-117.03991
aF-117.041
aF-117.0417
aF-117.04213
aF-117.04249
aF-117.04223
aF-117.03984
aF-117.03937
aF-117.03642
aF-117.03524
aF-117.03494
aF-117.03334
aF-117.03235
aF-117.03021
aF-117.02167
aF-117.00715
aF-117.00295
aF-117.00068
aF-116.97561
aF-116.96292
aF-116.93722
aF-116.87607
aF-116.84182
aF-116.83145
aF-116.8287
aF-116.8282
aF-116.814
aF-116.75785
aF-116.75747
aF-116.75738
aF-116.75743
aF-116.75233
aF-116.74981
aF-116.74481
aF-116.73917
aF-116.73719
aF-116.73488
aF-116.71621
aF-116.70984
aF-116.70304
aF-116.70232
aF-116.68692
aF-116.62605
aF-116.61658
aF-116.6101
aF-116.59362
aF-116.57045
aF-116.5532
aF-116.50738
aF-116.50686
aF-116.50616
aF-116.50483
aF-116.5042
aF-116.5029
aF-116.50221
aF-116.50153
aF-116.50129
aF-116.50104
aF-116.49995
aF-116.49662
aF-116.48435
aF-116.48361
aF-116.48177
aF-116.47513
aF-116.4722
aF-116.45099
aF-116.4175
aF-116.38957
aF-116.36913
aF-116.36118
aF-116.35452
aF-116.33585
aF-116.33474
aF-116.33347
aF-116.32947
aF-116.32799
aF-116.32503
aF-116.31471
aF-116.30007
aF-116.29046
aF-116.26669
aF-116.26374
aF-116.26299
aF-116.26294
aF-116.25788
aF-116.2427
aF-116.23684
aF-116.23382
aF-116.22958
aF-116.21333
aF-116.18814
aF-116.18166
aF-116.18093
aF-116.18089
aF-116.18055
aF-116.17941
aF-116.17903
aF-116.17878
aF-116.17383
aF-116.15824
aF-116.15304
aF-116.13528
aF-116.12603
aF-116.08202
aF-116.06426
aF-116.0636
aF-116.06163
aF-116.06097
aF-116.06051
aF-116.05866
aF-116.05173
aF-116.04942
aF-116.04937
aF-116.04924
aF-116.04996
aF-115.87239
aF-115.6867
aF-115.42094
aF-114.92514
aF-114.78255
aF-114.63948
aF-114.32155
aF-114.38402
aF-114.47624
aF-114.50566
aF-114.50012
aF-114.46501
aF-114.09298
aF-113.90447
aF-113.7509
aF-113.44991
aF-113.45913
aF-113.18786
aF-113.18779
aF-112.9703
aF-112.63
aF-112.309
aF-111.78135
aF-111.48326
aF-111.23035
aF-111.04897
aF-111.04898
aF-111.0496
aF-111.04912
aF-111.04806
aF-111.04654
aF-111.04663
aF-111.04659
aF-111.04639
aF-111.04607
aF-111.04549
aF-111.04418
aF-111.04397
aF-111.04401
aF-111.04406
aF-111.04407
aF-111.04399
aF-111.04444
aF-111.04694
aF-111.04713
aF-111.04718
aF-111.04732
aF-111.04711
aF-111.04711
aF-111.04691
aF-111.04694
aF-111.04671
aF-111.04669
aF-111.04934
aF-111.14884
aF-111.26009
aF-111.4087
aF-111.51913
aF-111.73177
aF-111.82932
aF-111.88098
aF-111.9304
aF-111.98965
aF-112.10309
aF-112.1985
aF-112.26534
aF-112.45023
aF-112.58229
aF-112.68558
aF-112.78175
aF-112.83266
aF-112.96233
aF-113.10627
aF-113.20505
aF-113.36362
aF-113.49562
aF-113.64886
aF-113.80254
aF-114.0391
aF-114.04172
aF-114.04537
aF-114.18492
aF-114.30408
aF-114.39727
aF-114.49854
aF-114.61271
aF-114.6492
aF-114.76097
aF-114.91817
aF-115.12254
aF-115.25015
aF-115.31388
aF-115.3968
aF-115.52677
aF-115.69522
aF-115.84911
aF-115.98839
aF-116.01199
aF-116.12593
aF-116.20623
aF-116.37594
aF-116.48554
aF-116.55307
aF-116.70972
aF-116.861
aF-117.02234
aF-117.02622
aF-117.02634
aF-117.02653
aa(lp34
F-72.64313
aF-72.60487
aF-72.57337
aF-72.45609
aF-72.32182
aF-72.17549
aF-72.10639
aF-72.02966
aF-71.95441
aF-71.87297
aF-71.82387
aF-71.79924
aF-71.79919
aF-71.79817
aF-71.79735
aF-71.79529
aF-71.79326
aF-71.79125
aF-71.78916
aF-71.78753
aF-71.78796
aF-71.78948
aF-71.7904
aF-71.79102
aF-71.79261
aF-71.7956
aF-71.79682
aF-71.79927
aF-71.81486
aF-71.83141
aF-71.84346
aF-71.83538
aF-71.8334
aF-71.83266
aF-71.83767
aF-71.8294
aF-71.8662
aF-71.90722
aF-71.90726
aF-71.90967
aF-72.10921
aF-72.55156
aF-72.9655
aF-73.24956
aF-73.54419
aF-73.65965
aF-73.6636
aF-73.67519
aF-73.69235
aF-73.71365
aF-73.65167
aF-73.61237
aF-73.57087
aF-73.52098
aF-73.50996
aF-73.54966
aF-73.54256
aF-73.53613
aF-73.53529
aF-73.53325
aF-73.52078
aF-73.51151
aF-73.49936
aF-73.49308
aF-73.48747
aF-73.48731
aF-73.42605
aF-73.33687
aF-73.27508
aF-73.19781
aF-73.13059
aF-73.04828
aF-72.91628
aF-72.81703
aF-72.76177
aF-72.7591
aF-72.76486
aF-72.75707
aF-72.75203
aF-72.75134
aF-72.64329
aa(lp35
F-67.45613
aF-67.43075
aF-67.45703
aF-67.47637
aF-67.40528
aF-67.29821
aF-67.28526
aF-67.16831
aF-66.98074
aF-67.09321
aF-67.34045
aF-67.71533
aF-68.16992
aF-68.64101
aF-69.05591
aF-69.51416
aF-70.35164
aF-70.41563
aF-70.57509
aF-70.8291
aF-70.81753
aF-70.84451
aF-70.88701
aF-70.93521
aF-70.98062
aF-70.98104
aF-70.97
aF-70.96455
aF-70.95475
aF-70.96062
aF-70.95222
aF-70.95725
aF-70.97294
aF-70.97602
aF-70.98185
aF-70.98259
aF-70.98346
aF-70.99168
aF-71.00016
aF-71.00891
aF-71.01878
aF-71.03927
aF-71.06197
aF-71.08392
aF-71.08272
aF-71.02708
aF-71.00135
aF-70.91389
aF-70.85659
aF-70.81234
aF-70.80712
aF-70.75174
aF-70.66077
aF-70.62992
aF-70.71305
aF-70.68839
aF-70.59793
aF-70.51954
aF-70.42991
aF-70.38853
aF-70.38877
aF-70.30538
aF-70.26111
aF-70.28131
aF-70.29139
aF-70.29232
aF-70.30079
aF-70.2481
aF-70.25847
aF-70.2762
aF-70.25109
aF-70.20536
aF-70.16299
aF-70.11047
aF-70.08683
aF-69.45597
aF-69.13997
aF-69.06773
aF-69.03661
aF-69.04968
aF-68.97898
aF-68.91067
aF-68.74316
aF-68.60482
aF-68.47428
aF-68.38494
aF-68.34344
aF-68.2653
aF-68.15431
aF-68.09206
aF-68.02478
aF-67.95239
aF-67.90474
aF-67.83517
aF-67.78948
aF-67.78957
aF-67.78296
aF-67.78124
aF-67.78111
aF-67.77813
aF-67.77197
aF-67.76616
aF-67.75832
aF-67.75388
aF-67.7515
aF-67.75498
aF-67.7621
aF-67.76802
aF-67.77276
aF-67.79147
aF-67.79983
aF-67.80404
aF-67.79136
aF-67.76669
aF-67.78087
aF-67.79356
aF-67.72305
aF-67.61201
aF-67.49945
aF-67.44246
aF-67.42938
aF-67.42054
aF-67.46657
aF-67.48379
aF-67.49115
aF-67.48028
aF-67.45621
aa(lp36
F-77.95623
aF-77.78749
aF-77.71585
aF-77.54385
aF-77.47294
aF-77.34956
aF-77.23094
aF-77.06593
aF-76.93214
aF-76.82275
aF-76.70126
aF-76.5187
aF-76.39563
aF-76.26473
aF-76.02005
aF-75.80329
aF-75.78861
aF-75.78861
aF-75.78909
aF-75.7878
aF-75.78121
aF-75.77401
aF-75.76726
aF-75.75353
aF-75.74563
aF-75.74077
aF-75.73284
aF-75.72452
aF-75.71597
aF-75.70608
aF-75.69961
aF-75.67121
aF-75.59814
aF-75.56413
aF-75.53414
aF-75.50008
aF-75.43734
aF-75.38031
aF-75.23691
aF-75.15956
aF-75.11611
aF-75.06422
aF-74.98628
aF-74.98629
aF-74.98794
aF-74.98939
aF-74.99042
aF-74.99335
aF-74.99962
aF-74.99962
aF-74.99962
aF-75.01909
aF-75.0208
aF-75.02414
aF-75.03129
aF-75.04146
aF-75.05793
aF-75.0714
aF-75.08781
aF-75.10159
aF-75.11223
aF-75.12462
aF-75.1352
aF-75.15687
aF-75.16643
aF-75.63201
aF-76.34762
aF-76.59613
aF-76.84275
aF-76.95825
aF-77.11374
aF-77.28706
aF-77.179
aF-77.10037
aF-77.06982
aF-77.0417
aF-77.03901
aF-77.03706
aF-76.99502
aF-76.98527
aF-76.97328
aF-76.96578
aF-76.95488
aF-76.94899
aF-76.94078
aF-76.93487
aF-76.92483
aF-76.91915
aF-76.91374
aF-76.9135
aF-76.91876
aF-76.92472
aF-76.93131
aF-76.94152
aF-76.96349
aF-76.97027
aF-76.98587
aF-76.99288
aF-77.00141
aF-77.02561
aF-77.06276
aF-77.09124
aF-77.11975
aF-77.11976
aF-77.133
aF-77.16662
aF-77.19618
aF-77.24599
aF-77.25429
aF-77.2888
aF-77.32563
aF-77.45697
aF-77.5153
aF-77.52355
aF-77.4824
aF-77.45864
aF-77.5656
aF-77.7196
aF-77.71966
aF-77.71996
aF-77.75419
aF-77.77987
aF-77.85164
aF-77.9273
aF-78.02699
aF-78.14581
aF-78.23858
aF-78.35882
aF-78.42607
aF-78.4316
aF-78.4523
aF-78.56775
aF-78.70559
aF-78.77498
aF-78.81994
aF-78.93873
aF-79.03702
aF-79.10183
aF-79.16173
aF-79.23192
aF-79.28413
aF-79.4126
aF-79.45611
aF-79.48675
aF-79.47667
aF-79.47666
aF-79.29821
aF-79.08455
aF-78.90054
aF-78.77185
aF-78.6245
aF-78.45036
aF-78.33784
aF-78.23749
aF-78.11502
aF-77.96644
aa(lp37
F-94.43231
aF-94.43395
aF-94.43512
aF-94.43777
aF-94.44102
aF-94.44879
aF-94.44997
aF-94.45745
aF-94.46384
aF-94.46508
aF-94.46544
aF-94.46859
aF-94.47446
aF-94.47881
aF-94.48144
aF-94.48588
aF-94.48588
aF-94.48594
aF-94.63324
aF-94.76008
aF-94.86696
aF-95.02577
aF-95.10089
aF-95.2406
aF-95.30672
aF-95.52052
aF-95.81514
aF-95.95005
aF-96.17029
aF-96.31838
aF-96.53006
aF-96.86625
aF-97.09021
aF-97.20491
aF-97.58967
aF-97.9567
aF-98.4096
aF-98.96067
aF-99.26094
aF-99.68436
aF-100.00038
aF-100.11293
aF-103.00211
aF-103.00243
aF-103.00245
aF-103.00228
aF-103.00228
aF-103.00233
aF-103.00233
aF-103.0023
aF-103.00226
aF-103.00223
aF-103.00226
aF-103.0023
aF-103.00218
aF-103.00237
aF-103.00218
aF-103.00214
aF-103.0021
aF-103.00215
aF-103.00213
aF-103.00206
aF-103.00218
aF-103.00223
aF-103.00224
aF-103.00227
aF-103.00228
aF-103.00232
aF-103.00232
aF-103.0022
aF-103.0022
aF-103.00214
aF-102.98698
aF-102.97961
aF-102.9279
aF-102.89315
aF-102.86545
aF-102.81507
aF-102.77324
aF-102.7059
aF-102.68337
aF-102.62547
aF-102.57091
aF-102.52468
aF-102.49444
aF-102.40232
aF-102.35537
aF-102.34378
aF-102.29933
aF-102.26493
aF-102.24848
aF-102.19751
aF-102.17511
aF-102.09059
aF-102.07425
aF-102.05418
aF-102.04538
aF-102.04209
aF-101.96939
aF-101.77847
aF-101.49502
aF-101.08951
aF-100.73451
aF-100.22093
aF-99.79633
aF-99.60022
aF-99.20558
aF-98.68884
aF-98.43796
aF-98.03595
aF-97.71715
aF-97.41024
aF-97.1197
aF-96.91244
aF-96.55381
aF-96.28415
aF-96.27928
aF-96.04868
aF-95.78601
aF-95.58549
aF-95.41316
aF-95.15539
aF-94.96426
aF-94.77333
aF-94.61796
aF-94.61798
aF-94.61816
aF-94.61944
aF-94.61804
aF-94.61801
aF-94.61798
aF-94.61807
aF-94.61829
aF-94.61838
aF-94.61847
aF-94.61839
aF-94.61818
aF-94.61818
aF-94.61806
aF-94.61806
aF-94.618
aF-94.61781
aF-94.61772
aF-94.61786
aF-94.61786
aF-94.61791
aF-94.61792
aF-94.61785
aF-94.61789
aF-94.61784
aF-94.61793
aF-94.61792
aF-94.61777
aF-94.5934
aF-94.57602
aF-94.5563
aF-94.53257
aF-94.51826
aF-94.4991
aF-94.47872
aF-94.46007
aF-94.43321
aa(lp38
F-80.51904
aF-80.51887
aF-80.51889
aF-80.51904
aF-80.51896
aF-80.519
aF-80.51902
aF-80.51979
aF-80.51905
aF-80.51909
aF-80.51905
aF-80.51893
aF-80.51899
aF-80.51899
aF-80.57018
aF-80.64068
aF-80.62345
aF-80.67905
aF-80.67915
aF-80.70884
aF-80.73918
aF-80.73634
aF-80.73958
aF-80.7895
aF-80.85086
aF-80.99645
aF-81.10734
aF-81.32789
aF-81.65907
aF-81.74372
aF-81.80564
aF-81.78105
aF-81.76608
aF-81.98396
aF-82.08866
aF-82.13327
aF-82.20789
aF-82.19786
aF-82.30493
aF-82.52025
aF-82.5957
aF-82.59605
aF-82.63421
aF-82.69107
aF-82.81866
aF-82.85643
aF-82.87029
aF-82.92852
aF-83.03596
aF-83.16023
aF-83.18992
aF-83.25246
aF-83.32044
aF-83.38375
aF-83.5321
aF-83.60633
aF-83.63688
aF-83.64276
aF-83.68368
aF-83.76657
aF-83.85462
aF-83.99038
aF-84.21217
aF-84.29624
aF-84.49374
aF-84.58023
aF-84.81682
aF-84.82016
aF-84.82016
aF-84.81983
aF-84.81921
aF-84.81743
aF-84.81505
aF-84.8146
aF-84.81413
aF-84.81161
aF-84.80607
aF-84.8039
aF-84.80389
aF-84.80346
aF-84.80251
aF-84.80219
aF-84.8023
aF-84.80269
aF-84.8032
aF-84.80333
aF-84.80338
aF-84.80359
aF-84.80388
aF-84.80393
aF-84.80421
aF-84.80499
aF-84.8056
aF-84.80597
aF-84.80597
aF-84.79846
aF-84.70871
aF-84.67018
aF-84.56953
aF-84.45746
aF-84.40308
aF-84.32847
aF-84.21543
aF-84.14889
aF-84.07437
aF-83.93801
aF-83.85652
aF-83.76451
aF-83.70947
aF-83.68255
aF-83.65588
aF-83.63154
aF-83.59474
aF-83.56863
aF-83.53156
aF-83.51951
aF-83.4983
aF-83.4883
aF-83.46885
aF-83.41585
aF-83.11246
aF-83.07365
aF-83.06931
aF-83.06694
aF-83.06652
aF-82.99992
aF-82.99557
aF-82.87491
aF-82.83164
aF-82.83174
aF-82.80656
aF-82.80612
aF-82.76387
aF-82.74991
aF-82.72643
aF-82.68912
aF-82.68112
aF-82.65376
aF-82.6249
aF-82.49989
aF-82.4206
aF-82.39835
aF-82.37488
aF-82.34812
aF-82.33255
aF-82.24988
aF-82.24149
aF-82.12487
aF-81.99986
aF-81.97657
aF-81.97058
aF-81.87486
aF-81.78837
aF-81.74985
aF-81.7092
aF-81.68645
aF-81.66584
aF-81.62485
aF-81.62485
aF-81.55304
aF-81.49984
aF-81.49518
aF-81.45429
aF-81.43542
aF-81.37484
aF-81.33208
aF-81.29143
aF-81.27243
aF-81.24983
aF-81.21192
aF-81.19098
aF-81.17417
aF-81.12376
aF-81.10695
aF-81.08754
aF-81.02931
aF-81.02614
aF-81.01944
aF-81.00983
aF-81.00557
aF-81.00445
aF-80.99982
aF-80.97907
aF-80.94371
aF-80.90318
aF-80.87482
aF-80.83553
aF-80.79198
aF-80.74982
aF-80.70754
aF-80.66873
aF-80.62481
aF-80.60477
aF-80.57532
aF-80.52967
aF-80.51938
aF-80.51935
aF-80.51938
aF-80.51932
aF-80.51941
aF-80.51941
aF-80.51936
aF-80.51935
aF-80.51923
aF-80.51911
aF-80.5191
aF-80.51908
aF-80.5191
aa(lp39
F-114.04392
aF-114.04391
aF-114.04375
aF-114.04195
aF-114.04061
aF-114.04055
aF-114.0398
aF-114.04172
aF-114.0391
aF-113.80254
aF-113.64886
aF-113.49562
aF-113.36362
aF-113.20505
aF-113.10627
aF-112.96233
aF-112.83266
aF-112.78175
aF-112.68558
aF-112.58229
aF-112.45023
aF-112.26534
aF-112.1985
aF-112.10309
aF-111.98965
aF-111.9304
aF-111.88098
aF-111.82932
aF-111.73177
aF-111.51913
aF-111.4087
aF-111.26009
aF-111.14884
aF-111.04934
aF-111.04669
aF-111.04682
aF-111.04631
aF-111.04601
aF-111.0458
aF-111.04611
aF-111.04648
aF-111.04667
aF-111.04688
aF-111.04686
aF-110.94406
aF-110.86384
aF-110.70521
aF-110.55878
aF-110.43401
aF-110.34177
aF-110.25071
aF-110.14713
aF-110.0004
aF-109.90645
aF-109.75044
aF-109.67348
aF-109.63381
aF-109.51776
aF-109.43099
aF-109.30329
aF-109.05847
aF-109.05008
aF-109.04907
aF-109.04899
aF-109.05051
aF-109.05088
aF-109.05093
aF-109.05088
aF-109.05087
aF-109.05077
aF-109.05132
aF-109.05077
aF-109.05119
aF-109.05158
aF-109.05305
aF-109.05655
aF-109.06015
aF-109.06017
aF-109.04984
aF-109.0498
aF-109.04232
aF-109.04304
aF-109.04159
aF-109.04191
aF-109.04582
aF-109.04583
aF-109.04519
aF-109.04531
aF-109.04522
aF-109.04538
aF-109.26993
aF-109.43568
aF-109.83491
aF-110.13851
aF-110.272
aF-110.54945
aF-110.73783
aF-111.03957
aF-111.2523
aF-111.39598
aF-111.58602
aF-111.99142
aF-112.32985
aF-112.48455
aF-112.75086
aF-112.96895
aF-112.99281
aF-113.02079
aF-113.17698
aF-113.32097
aF-113.4727
aF-113.62465
aF-113.86852
aF-113.94557
aF-114.05052
aF-114.0506
aF-114.05187
aF-114.05264
aF-114.05198
aF-114.04939
aF-114.05013
aF-114.04997
aF-114.04992
aF-114.04916
aF-114.04833
aF-114.04885
aF-114.04841
aF-114.04779
aF-114.0473
aF-114.04757
aF-114.04727
aF-114.04658
aF-114.04644
aF-114.04619
aF-114.04558
aa(lp40
F-91.42578
aF-91.3316
aF-91.02998
aF-90.72178
aF-90.58502
aF-90.47924
aF-90.38361
aF-90.15464
aF-90.17831
aF-90.35319
aF-90.32038
aF-90.11412
aF-90.0495
aF-89.96033
aF-89.90423
aF-89.79814
aF-89.67462
aF-89.60807
aF-89.51597
aF-89.4544
aF-89.5176
aF-89.37645
aF-89.29896
aF-89.13427
aF-89.13322
aF-89.10328
aF-89.10576
aF-89.15313
aF-89.1709
aF-89.1785
aF-89.17939
aF-89.17263
aF-89.15339
aF-89.12908
aF-89.13358
aF-89.14494
aF-89.16397
aF-89.1832
aF-89.19208
aF-89.20036
aF-89.20077
aF-89.18195
aF-89.1678
aF-89.16586
aF-89.20411
aF-89.23912
aF-89.26107
aF-89.29895
aF-89.39133
aF-89.41801
aF-89.41822
aF-89.41826
aF-89.45351
aF-89.48511
aF-89.48393
aF-89.48247
aF-89.47555
aF-89.46953
aF-89.46559
aF-89.46616
aF-89.46978
aF-89.47334
aF-89.48051
aF-89.49022
aF-89.5021
aF-89.51843
aF-89.52759
aF-89.55264
aF-89.55368
aF-89.56806
aF-89.56968
aF-89.57124
aF-89.56266
aF-89.56198
aF-89.56018
aF-89.55345
aF-89.55146
aF-89.54374
aF-89.54093
aF-89.54003
aF-89.53941
aF-89.53791
aF-89.5205
aF-89.51396
aF-89.54852
aF-89.61576
aF-89.59984
aF-89.54829
aF-89.53467
aF-89.54576
aF-89.565
aF-89.6004
aF-89.63679
aF-89.68064
aF-89.69494
aF-89.70554
aF-89.69506
aF-89.67608
aF-89.62904
aF-89.59804
aF-89.59466
aF-89.60762
aF-89.62191
aF-89.68195
aF-89.73264
aF-89.73309
aF-89.73345
aF-90.13255
aF-90.37789
aF-90.33299
aF-90.27605
aF-90.23527
aF-90.19301
aF-90.13603
aF-90.10892
aF-90.07415
aF-90.06835
aF-90.13535
aF-90.15565
aF-90.32657
aF-90.60848
aF-90.90498
aF-91.41595
aF-91.60228
aF-91.93252
aF-92.29101
aF-92.7961
aF-93.07829
aF-93.43057
aF-93.72767
aF-94.17324
aF-94.61783
aF-94.61792
aF-94.61793
aF-94.61784
aF-94.61789
aF-94.61785
aF-94.61792
aF-94.61791
aF-94.61786
aF-94.61786
aF-94.61772
aF-94.61781
aF-94.618
aF-94.61806
aF-94.61806
aF-94.61818
aF-94.61818
aF-94.61839
aF-94.61847
aF-94.61838
aF-94.61829
aF-94.61807
aF-94.61798
aF-94.61801
aF-94.61804
aF-94.61944
aF-94.61816
aF-94.61798
aF-94.61796
aF-94.61794
aF-94.61804
aF-94.61803
aF-94.6171
aF-94.61767
aF-94.61709
aF-94.61404
aF-94.61347
aF-94.61298
aF-94.61163
aF-94.60875
aF-94.60797
aF-94.60791
aF-94.60721
aF-94.8055
aF-94.89442
aF-95.10279
aF-95.04829
aF-94.97413
aF-94.95055
aF-94.86309
aF-94.9166
aF-94.88073
aF-94.92943
aF-95.12034
aF-95.30826
aF-95.30829
aF-95.30847
aF-95.37692
aF-95.42
aF-95.39693
aF-95.39911
aF-95.39537
aF-95.44069
aF-95.48132
aF-95.51226
aF-95.55329
aF-95.61348
aF-95.62994
aF-95.62892
aF-95.64393
aF-95.65657
aF-95.68753
aF-95.69679
aF-95.68867
aF-95.67003
aF-95.65288
aF-95.6813
aF-95.6971
aF-95.70437
aF-95.72473
aF-95.76286
aF-95.76853
aF-95.76564
aF-95.76455
aF-95.53433
aF-95.2228
aF-94.93691
aF-94.73362
aF-94.54165
aF-94.39537
aF-94.09108
aF-93.92048
aF-93.7519
aF-93.56518
aF-93.37429
aF-93.34719
aF-93.29205
aF-93.25169
aF-93.07262
aF-92.88996
aF-92.55937
aF-92.33694
aF-92.19616
aF-92.03779
aF-91.74087
aF-91.62135
aF-91.525
aF-91.48886
aF-91.41998
aF-91.41942
aF-91.44477
aF-91.51163
aF-91.42651
aa(lp41
F-96.57216
aF-96.59199
aF-96.60042
aF-96.69318
aF-96.71908
aF-96.73971
aF-96.75432
aF-96.78652
aF-96.79675
aF-96.83533
aF-96.83662
aF-96.84191
aF-96.83686
aF-96.85824
aF-96.85894
aF-96.85885
aF-96.93103
aF-96.99136
aF-97.01554
aF-97.13601
aF-97.12893
aF-97.13104
aF-97.13643
aF-97.17801
aF-97.23062
aF-97.22739
aF-96.80016
aF-96.25029
aF-95.85602
aF-95.65843
aF-95.3754
aF-95.15338
aF-95.15329
aF-94.97427
aF-94.69035
aF-94.68236
aF-94.58753
aF-94.44406
aF-94.33316
aF-94.18861
aF-93.97652
aF-93.8879
aF-93.81207
aF-93.78465
aF-93.71423
aF-93.63118
aF-93.58968
aF-93.49543
aF-93.4597
aF-93.42127
aF-93.39395
aF-93.35276
aF-93.14451
aF-92.71255
aF-92.63735
aF-92.66327
aF-92.48163
aF-92.45383
aF-92.39305
aF-92.3877
aF-92.37944
aF-92.37313
aF-92.36817
aF-92.35383
aF-92.33717
aF-92.32175
aF-92.30145
aF-92.19357
aF-92.04656
aF-91.98016
aF-91.97444
aF-91.9564
aF-91.94071
aF-91.90642
aF-91.86788
aF-91.8344
aF-91.78504
aF-91.75519
aF-91.71147
aF-91.70851
aF-91.69826
aF-91.69252
aF-91.66566
aF-91.62512
aF-91.5743
aF-91.4513
aF-91.43809
aF-91.37766
aF-91.33386
aF-91.29359
aF-91.13788
aF-91.0868
aF-91.04614
aF-91.02156
aF-90.88146
aF-90.83719
aF-90.83615
aF-90.81109
aF-90.79043
aF-90.77803
aF-90.78739
aF-90.78402
aF-90.77312
aF-90.63019
aF-90.55791
aF-90.47763
aF-90.37582
aF-90.30693
aF-90.14479
aF-90.05966
aF-89.99647
aF-89.97881
aF-89.94916
aF-89.92642
aF-89.88071
aF-89.84505
aF-89.82402
aF-89.78573
aF-89.74601
aF-89.71965
aF-89.70753
aF-89.66875
aF-89.63813
aF-89.60912
aF-89.58569
aF-89.4892
aF-89.48338
aF-89.48886
aF-89.49214
aF-89.50009
aF-89.54816
aF-89.57552
aF-89.62517
aF-89.64102
aF-89.65745
aF-89.68073
aF-89.70864
aF-89.73907
aF-89.75011
aF-89.79228
aF-89.82003
aF-89.83731
aF-89.88916
aF-89.90644
aF-89.91657
aF-89.94697
aF-89.9571
aF-89.96571
aF-92.20092
aF-92.29165
aF-92.29258
aF-92.29407
aF-92.37599
aF-92.54859
aF-92.67735
aF-92.77206
aF-92.87649
aF-92.84598
aF-92.67877
aF-92.66392
aF-92.69952
aF-92.75436
aF-92.78804
aF-92.76951
aF-92.69432
aF-92.55146
aF-92.3683
aF-92.03226
aF-91.77449
aF-91.46522
aF-91.30682
aF-91.24419
aF-91.21771
aF-91.21771
aF-91.21777
aF-91.32771
aF-91.59098
aF-91.80709
aF-91.97891
aF-92.1557
aF-92.35243
aF-92.53622
aF-92.732
aF-92.94434
aF-93.14917
aF-93.41061
aF-93.5688
aF-93.90833
aF-94.18803
aF-94.40023
aF-94.66761
aF-94.87268
aF-95.05815
aF-95.22238
aF-95.45461
aF-95.6825
aF-95.84386
aF-96.11641
aF-96.24365
aF-96.45325
aF-96.45326
aF-96.45329
aF-96.45344
aF-96.45327
aF-96.453
aF-96.45331
aF-96.45323
aF-96.45315
aF-96.45274
aF-96.45247
aF-96.45193
aF-96.45166
aF-96.45139
aF-96.45166
aF-96.45203
aF-96.45238
aF-96.45238
aF-96.45448
aF-96.54928
aF-96.68714
aF-96.76906
aF-96.85387
aF-96.77795
aF-96.63671
aF-96.57752
aF-96.57112
aF-96.57002
aF-96.56367
aF-96.572
aa(lp42
F-89.96571
aF-89.9571
aF-89.94697
aF-89.91657
aF-89.90644
aF-89.88916
aF-89.83731
aF-89.82003
aF-89.79228
aF-89.75011
aF-89.73907
aF-89.70864
aF-89.68073
aF-89.65745
aF-89.64102
aF-89.62517
aF-89.57552
aF-89.54816
aF-89.50009
aF-89.49214
aF-89.48886
aF-89.48338
aF-89.48109
aF-89.27466
aF-88.75007
aF-88.37506
aF-88.17311
aF-87.64768
aF-87.0631
aF-86.62512
aF-86.25014
aF-85.75014
aF-85.25011
aF-84.78715
aF-84.60308
aF-84.42223
aF-84.37504
aF-84.33773
aF-84.26539
aF-84.16205
aF-84.14584
aF-84.11122
aF-84.11912
aF-84.10222
aF-84.00568
aF-83.93096
aF-83.75953
aF-83.49999
aF-83.15256
aF-82.6631
aF-82.41242
aF-82.32952
aF-82.28183
aF-82.21347
aF-82.12297
aF-82.31038
aF-82.37491
aF-82.42273
aF-82.42478
aF-82.42373
aF-82.42232
aF-82.42112
aF-82.41577
aF-82.41487
aF-82.41729
aF-82.42945
aF-82.44723
aF-82.45583
aF-82.46944
aF-82.46977
aF-82.46893
aF-82.4685
aF-82.47046
aF-82.47262
aF-82.47902
aF-82.48038
aF-82.48185
aF-82.48094
aF-82.47646
aF-82.4755
aF-82.47438
aF-82.4734
aF-82.47248
aF-82.47015
aF-82.46868
aF-82.46739
aF-82.47134
aF-82.48353
aF-82.48986
aF-82.49446
aF-82.49863
aF-82.511
aF-82.51037
aF-82.51004
aF-82.51183
aF-82.51553
aF-82.51764
aF-82.52157
aF-82.54814
aF-82.55452
aF-82.55924
aF-82.57229
aF-82.58114
aF-82.58389
aF-82.5996
aF-82.61709
aF-82.64122
aF-82.65983
aF-82.6671
aF-82.67486
aF-82.68765
aF-82.72292
aF-82.87491
aF-82.92301
aF-82.95975
aF-83.02623
aF-83.07821
aF-83.11815
aF-83.13104
aF-83.12128
aF-83.12753
aF-83.14945
aF-83.12492
aF-83.11246
aF-83.41585
aF-83.46885
aF-83.4883
aF-83.4983
aF-83.51951
aF-83.53156
aF-83.56863
aF-83.59474
aF-83.63154
aF-83.65588
aF-83.68255
aF-83.70947
aF-83.76451
aF-83.85652
aF-83.93801
aF-84.07437
aF-84.14889
aF-84.21543
aF-84.32847
aF-84.40308
aF-84.45746
aF-84.56953
aF-84.67018
aF-84.70871
aF-84.79846
aF-84.80597
aF-84.806
aF-84.80585
aF-84.86615
aF-84.98948
aF-85.05878
aF-85.09759
aF-85.1846
aF-85.27301
aF-85.36831
aF-85.51562
aF-85.62941
aF-85.70689
aF-85.79051
aF-85.87764
aF-85.96271
aF-86.06257
aF-86.20247
aF-86.24123
aF-86.27249
aF-86.37451
aF-86.50878
aF-86.53252
aF-86.68846
aF-86.78346
aF-86.81428
aF-87.19123
aF-87.20777
aF-87.20644
aF-87.20218
aF-87.18636
aF-87.18485
aF-87.18433
aF-87.17937
aF-87.17323
aF-87.17235
aF-87.17179
aF-87.17008
aF-87.16505
aF-87.15175
aF-87.14875
aF-87.15001
aF-87.13179
aF-87.13085
aF-87.12504
aF-87.12504
aF-87.11762
aF-87.11116
aF-87.10417
aF-87.10152
aF-87.08834
aF-87.06804
aF-87.04921
aF-87.02116
aF-87.01993
aF-87.01986
aF-87.69164
aF-87.69869
aF-87.71942
aF-87.84961
aF-87.78754
aF-87.86351
aF-88.07759
aF-88.10301
aF-88.28652
aF-88.38423
aF-88.49775
aF-88.58419
aF-88.66532
aF-88.73372
aF-88.93326
aF-89.43111
aF-89.7641
aF-90.11714
aF-90.13375
aF-90.1572
aF-90.17822
aF-90.22094
aF-90.27044
aF-90.33662
aa(lp43
F-96.28415
aF-96.55381
aF-96.91244
aF-97.1197
aF-97.41024
aF-97.71715
aF-98.03595
aF-98.43796
aF-98.68884
aF-99.20558
aF-99.60022
aF-99.79633
aF-100.22093
aF-100.73451
aF-101.08951
aF-101.49502
aF-101.77847
aF-101.96939
aF-102.04209
aF-102.0421
aF-102.04199
aF-102.04196
aF-102.04192
aF-102.04178
aF-102.04179
aF-102.04166
aF-102.04286
aF-102.04402
aF-102.04456
aF-102.04431
aF-102.04447
aF-102.04452
aF-102.04479
aF-102.04501
aF-102.04494
aF-102.04524
aF-102.04514
aF-102.04541
aF-102.04802
aF-102.04875
aF-102.04907
aF-102.04955
aF-102.0506
aF-102.05139
aF-102.05174
aF-102.05174
aF-102.03708
aF-101.42433
aF-101.09803
aF-100.73031
aF-100.57028
aF-100.38662
aF-100.16409
aF-99.94642
aF-99.66648
aF-99.31246
aF-99.01739
aF-98.74792
aF-98.46173
aF-98.24065
aF-97.97966
aF-97.73793
aF-97.43479
aF-97.14189
aF-96.87596
aF-96.63358
aF-96.46649
aF-96.25662
aF-95.99926
aF-95.72806
aF-95.53642
aF-95.30855
aF-95.30829
aF-95.30826
aF-95.12034
aF-94.92943
aF-94.88073
aF-94.9166
aF-94.86309
aF-94.95055
aF-94.97413
aF-95.04829
aF-95.10279
aF-94.89442
aF-94.8055
aF-94.60721
aF-94.60791
aF-94.60797
aF-94.60875
aF-94.61163
aF-94.61298
aF-94.61347
aF-94.61404
aF-94.61709
aF-94.61767
aF-94.6171
aF-94.61803
aF-94.61804
aF-94.61794
aF-94.61796
aF-94.77333
aF-94.96426
aF-95.15539
aF-95.41316
aF-95.58549
aF-95.78601
aF-96.04868
aF-96.27928
aa(lp44
F-113.18786
aF-113.45913
aF-113.44991
aF-113.7509
aF-113.90447
aF-114.09298
aF-114.46501
aF-114.50012
aF-114.50566
aF-114.47624
aF-114.38402
aF-114.32155
aF-114.63948
aF-114.78255
aF-114.92514
aF-115.42094
aF-115.6867
aF-115.87239
aF-116.04996
aF-116.04224
aF-115.93612
aF-115.70988
aF-115.64283
aF-115.50102
aF-115.2832
aF-115.2068
aF-115.06234
aF-114.89781
aF-114.79856
aF-114.72663
aF-114.4784
aF-114.1525
aF-113.9954
aF-113.91314
aF-113.85966
aF-113.68357
aF-113.58596
aF-113.50773
aF-113.3469
aF-113.24086
aF-113.13401
aF-113.09205
aF-113.01952
aF-112.99944
aF-112.85649
aF-112.66393
aF-112.5009
aF-112.36503
aF-112.15894
aF-112.00374
aF-111.95489
aF-111.80918
aF-111.60255
aF-111.39895
aF-111.29704
aF-111.23266
aF-111.0687
aF-110.97747
aF-110.79368
aF-110.63672
aF-110.61458
aF-110.54124
aF-110.50078
aF-110.27919
aF-110.19228
aF-110.07346
aF-109.86595
aF-109.67519
aF-109.5472
aF-109.4948
aF-109.43248
aF-109.29378
aF-109.18609
aF-109.08314
aF-109.0246
aF-108.96669
aF-108.6257
aF-108.08873
aF-108.00066
aF-107.89314
aF-107.80445
aF-107.7449
aF-107.58806
aF-107.51817
aF-107.41121
aF-107.28433
aF-107.19213
aF-107.14885
aF-106.98297
aF-106.90641
aF-106.83933
aF-106.77927
aF-106.67733
aF-106.61816
aF-106.50059
aF-106.42226
aF-106.36885
aF-106.3211
aF-106.2492
aF-106.15515
aF-106.02483
aF-105.96653
aF-105.78923
aF-105.72517
aF-105.62747
aF-105.53123
aF-105.43124
aF-105.39315
aF-105.3128
aF-105.24124
aF-105.12772
aF-105.00914
aF-104.91862
aF-104.77234
aF-104.66087
aF-104.5544
aF-104.45531
aF-104.30923
aF-104.2272
aF-104.07806
aF-104.04874
aF-104.0488
aF-104.04887
aF-104.04971
aF-104.04786
aF-104.04782
aF-104.04633
aF-104.04594
aF-104.04586
aF-104.04442
aF-104.04217
aF-104.04232
aF-104.04353
aF-104.04414
aF-104.04507
aF-104.04539
aF-104.04498
aF-104.04517
aF-104.0458
aF-104.04586
aF-104.04556
aF-104.04519
aF-104.04594
aF-104.04546
aF-104.04585
aF-104.04547
aF-104.04544
aF-104.04539
aF-104.04497
aF-104.0448
aF-104.0441
aF-104.04379
aF-104.04271
aF-104.04249
aF-104.04227
aF-104.04199
aF-104.0415
aF-104.04149
aF-104.04138
aF-104.0412
aF-104.04153
aF-104.04102
aF-104.04078
aF-104.04053
aF-104.04019
aF-104.04019
aF-104.04032
aF-104.04
aF-104.03997
aF-104.03959
aF-104.04006
aF-104.04013
aF-104.0577
aF-104.0577
aF-104.05802
aF-104.42651
aF-104.69023
aF-104.80399
aF-104.98043
aF-105.22085
aF-105.45643
aF-105.70237
aF-106.01266
aF-106.4186
aF-106.762
aF-106.96645
aF-107.2323
aF-107.50119
aF-107.89823
aF-108.19927
aF-108.36925
aF-108.61304
aF-108.84041
aF-109.05593
aF-109.47096
aF-109.85068
aF-110.15603
aF-110.57457
aF-111.05553
aF-111.04897
aF-111.04897
aF-111.23035
aF-111.48326
aF-111.78135
aF-112.309
aF-112.63
aF-112.9703
aF-113.18779
aa(lp45
F-88.47298
aF-88.47288
aF-88.37504
aF-88.30513
aF-88.24958
aF-88.20006
aF-88.20006
aF-88.09899
aF-88.10789
aF-88.13023
aF-88.15726
aF-88.17927
aF-88.2166
aF-88.23343
aF-88.25893
aF-88.28006
aF-88.31523
aF-88.36033
aF-88.39953
aF-88.43052
aF-88.45498
aF-88.47205
aF-88.46455
aF-88.44989
aF-88.44058
aF-88.43417
aF-88.42283
aF-88.41484
aF-88.40994
aF-88.40594
aF-88.4032
aF-88.38443
aF-88.38517
aF-88.39593
aF-88.40416
aF-88.41938
aF-88.43351
aF-88.44699
aF-88.45003
aF-88.46128
aF-88.47993
aF-88.49348
aF-88.50001
aF-88.50336
aF-88.50979
aF-88.51807
aF-88.52601
aF-88.53351
aF-88.53926
aF-88.54384
aF-88.54585
aF-88.5496
aF-88.55846
aF-88.56787
aF-88.57805
aF-88.58663
aF-88.59519
aF-88.60388
aF-88.61507
aF-88.6182
aF-88.62502
aF-88.62809
aF-88.63362
aF-88.63733
aF-88.63915
aF-88.64747
aF-88.64801
aF-88.65766
aF-88.66725
aF-88.66942
aF-88.67743
aF-88.68216
aF-88.69102
aF-88.70417
aF-88.71265
aF-88.71739
aF-88.72375
aF-88.73056
aF-88.7401
aF-88.74757
aF-88.75002
aF-88.7539
aF-88.75952
aF-88.76529
aF-88.77127
aF-88.77816
aF-88.7842
aF-88.79226
aF-88.79515
aF-88.79521
aF-88.80064
aF-88.80672
aF-88.81138
aF-88.81631
aF-88.82139
aF-88.82327
aF-88.82863
aF-88.83683
aF-88.8421
aF-88.85039
aF-88.86054
aF-88.86933
aF-88.87503
aF-88.88285
aF-88.89764
aF-88.90033
aF-89.62879
aF-89.68416
aF-89.7188
aF-89.75564
aF-89.80341
aF-89.82039
aF-89.83851
aF-89.81684
aF-89.78163
aF-90.00554
aF-90.47267
aF-91.0792
aF-91.65489
aF-91.5136
aF-91.47316
aF-91.40021
aF-91.32131
aF-91.24635
aF-91.13441
aF-91.16081
aF-91.02601
aF-90.97966
aF-91.04507
aF-91.16145
aF-91.16604
aF-91.16607
aF-91.16607
aF-91.19812
aF-91.05695
aF-91.12544
aF-91.10567
aF-91.19986
aF-91.17114
aF-91.16979
aF-91.0317
aF-91.06749
aF-91.07223
aF-90.96686
aF-90.89003
aF-90.86456
aF-90.83802
aF-90.67677
aF-90.56583
aF-90.58329
aF-90.54965
aF-90.46844
aF-90.54038
aF-90.50152
aF-90.4669
aF-90.42932
aF-90.30553
aF-90.30779
aF-90.30929
aF-90.30589
aF-90.19931
aF-90.11634
aF-90.00757
aF-89.94355
aF-89.8915
aF-89.84587
aF-89.8214
aF-89.78755
aF-89.68881
aF-89.56309
aF-89.44308
aF-89.35464
aF-89.25181
aF-89.17112
aF-89.07463
aF-88.95479
aF-88.84545
aF-88.71977
aF-88.63014
aF-88.52806
aa(lp46
F-81.12387
aF-81.12385
aF-81.14386
aF-81.17303
aF-81.19839
aF-81.23287
aF-81.3286
aF-81.42985
aF-81.56034
aF-81.77843
aF-81.83318
aF-81.89274
aF-81.9308
aF-82.19481
aF-82.51295
aF-82.65731
aF-82.77711
aF-82.84754
aF-82.95653
aF-83.14178
aF-83.3539
aF-83.28974
aF-83.21382
aF-83.11182
aF-83.10861
aF-82.7814
aF-82.75555
aF-82.68679
aF-82.63923
aF-82.57745
aF-82.52213
aF-82.4516
aF-82.42588
aF-82.38088
aF-82.28251
aF-81.96738
aF-81.48452
aF-81.2044
aF-81.05275
aF-80.91082
aF-80.79781
aF-80.79774
aF-80.62608
aF-80.29358
aF-79.96833
aF-79.48294
aF-79.30747
aF-79.1444
aF-78.91037
aF-78.7336
aF-78.55893
aF-78.49939
aF-78.5332
aF-78.5899
aF-78.62121
aF-78.63967
aF-78.67799
aF-78.70764
aF-78.73334
aF-78.74974
aF-78.77565
aF-78.79259
aF-78.81402
aF-78.83413
aF-78.84389
aF-78.86711
aF-78.87442
aF-78.89261
aF-78.9259
aF-78.97626
aF-79.02713
aF-79.07123
aF-79.08972
aF-79.0994
aF-79.09957
aF-79.0776
aF-79.13307
aF-79.1751
aF-79.22923
aF-79.26612
aF-79.28716
aF-79.30038
aF-79.31651
aF-79.35373
aF-79.37618
aF-79.39136
aF-79.42777
aF-79.44278
aF-79.47287
aF-79.49753
aF-79.51089
aF-79.52264
aF-79.54772
aF-79.59188
aF-79.61636
aF-79.6248
aF-79.65129
aF-79.66225
aF-79.67867
aF-79.71837
aF-79.73723
aF-79.75433
aF-79.76287
aF-79.7747
aF-79.82753
aF-79.87089
aF-79.8928
aF-79.91556
aF-79.932
aF-79.94723
aF-79.96792
aF-79.99981
aF-80.03024
aF-80.08883
aF-80.11563
aF-80.12482
aF-80.15534
aF-80.19366
aF-80.22359
aF-80.2381
aF-80.24982
aF-80.27089
aF-80.29798
aF-80.31366
aF-80.33732
aF-80.34402
aF-80.36529
aF-80.37264
aF-80.37283
aF-80.37751
aF-80.40827
aF-80.4768
aF-80.49448
aF-80.50766
aF-80.52382
aF-80.55675
aF-80.57614
aF-80.58771
aF-80.60291
aF-80.61655
aF-80.61968
aF-80.62447
aF-80.63147
aF-80.66472
aF-80.67408
aF-80.68691
aF-80.69646
aF-80.71381
aF-80.73163
aF-80.7482
aF-80.74167
aF-80.75052
aF-81.02071
aF-81.15654
aa(lp47
F-89.55264
aF-89.52759
aF-89.51843
aF-89.5021
aF-89.49022
aF-89.48051
aF-89.47334
aF-89.46978
aF-89.46616
aF-89.46559
aF-89.46953
aF-89.47555
aF-89.48247
aF-89.48393
aF-89.48511
aF-89.48542
aF-89.48579
aF-89.4858
aF-89.48767
aF-89.48896
aF-89.48948
aF-89.48949
aF-89.49299
aF-89.49561
aF-89.49803
aF-89.50007
aF-89.50338
aF-89.50368
aF-89.50398
aF-89.50425
aF-89.50454
aF-89.50848
aF-89.5088
aF-89.51399
aF-89.51474
aF-89.51737
aF-89.51882
aF-89.5281
aF-89.52817
aF-89.52931
aF-89.53015
aF-89.53941
aF-89.54003
aF-89.54093
aF-89.54374
aF-89.55146
aF-89.55345
aF-89.56018
aF-89.56198
aF-89.56266
aF-89.57124
aF-89.56968
aF-89.56806
aF-89.55368
aFnan
aF-87.53595
aF-87.44805
aF-87.37271
aF-87.2195
aF-87.06197
aF-86.89009
aF-86.76522
aF-86.64777
aF-86.52383
aF-86.33851
aF-86.06173
aF-85.90735
aF-85.84753
aF-85.77291
aF-85.6373
aF-85.56105
aF-85.43405
aF-85.19391
aF-84.96416
aF-84.7847
aF-84.83028
aF-84.82052
aF-84.82016
aF-84.81682
aF-84.58023
aF-84.49374
aF-84.29624
aF-84.21217
aF-83.99038
aF-83.85462
aF-83.76657
aF-83.68368
aF-83.64276
aF-83.63688
aF-83.60633
aF-83.5321
aF-83.38375
aF-83.32044
aF-83.25246
aF-83.18992
aF-83.16023
aF-83.03596
aF-82.92852
aF-82.87029
aF-82.85643
aF-82.81866
aF-82.69107
aF-82.63421
aF-82.59605
aF-82.5957
aF-82.59571
aF-82.59862
aF-82.60323
aF-82.63597
aF-82.53097
aF-82.47114
aF-82.48714
aF-82.42098
aF-82.41096
aF-82.36196
aF-82.32229
aF-82.3167
aF-82.29585
aF-82.27376
aF-82.22327
aF-82.20246
aF-82.18801
aF-82.1784
aF-82.16952
aF-82.14977
aF-82.12543
aF-82.12616
aF-82.09187
aF-82.04661
aF-82.01049
aF-81.96803
aF-81.96804
aF-81.97046
aF-82.17067
aF-82.30556
aF-82.37437
aF-82.45539
aF-82.53325
aF-82.62236
aF-82.69567
aF-82.72642
aF-82.74531
aF-82.81298
aF-82.83557
aF-82.86787
aF-82.86269
aF-82.86031
aF-82.89428
aF-82.96488
aF-83.05736
aF-83.11429
aF-83.12554
aF-83.1896
aF-83.29669
aF-83.39561
aF-83.49261
aF-83.63661
aF-83.67529
aF-83.67541
aF-83.67561
aF-83.89071
aF-84.10529
aF-84.4418
aF-84.87494
aF-85.21816
aF-85.36948
aF-85.57673
aF-85.85993
aF-86.34009
aF-86.80393
aF-87.23264
aF-87.56239
aF-88.05411
aF-88.08786
aF-88.30572
aF-88.4935
aF-88.54281
aF-88.56986
aF-88.67759
aF-88.71346
aF-88.76146
aF-88.81325
aF-88.90014
aF-89.04805
aF-89.40832
aF-89.41822
aF-89.41801
aF-89.39133
aF-89.29895
aF-89.26107
aF-89.23912
aF-89.20411
aF-89.16586
aF-89.1678
aF-89.18195
aF-89.20077
aF-89.20036
aF-89.19208
aF-89.1832
aF-89.16397
aF-89.14494
aF-89.13358
aF-89.12908
aF-89.15339
aF-89.17263
aF-89.17939
aF-89.1785
aF-89.1709
aF-89.15313
aF-89.10576
aF-89.10328
aF-89.13322
aF-89.13427
aF-89.13894
aF-89.17193
aF-89.11818
aF-89.0782
aF-89.00241
aF-88.92301
aF-88.81508
aF-88.73373
aF-88.67805
aF-88.60369
aF-88.54857
aF-88.43465
aF-88.46708
aF-88.50507
aF-88.51451
aF-88.48227
aF-88.35666
aF-88.30753
aF-88.19402
aF-88.09116
aF-88.06417
aF-88.12993
aF-88.15384
aF-88.13119
aF-88.07462
aF-88.02971
aF-88.02803
aF-88.0266
aF-87.83058
aF-87.68035
aF-87.60194
aa(lp48
F-124.03622
aF-124.0356
aF-123.55518
aF-123.37257
aF-123.34514
aF-123.33325
aF-123.32163
aF-123.2659
aF-123.11667
aF-122.85447
aF-122.60771
aF-122.12949
aF-121.87242
aF-121.53311
aF-121.19562
aF-120.91205
aF-120.3984
aF-119.93745
aF-119.12612
aF-118.63199
aF-118.48251
aF-118.33472
aF-117.99385
aF-117.51056
aF-117.37152
aF-116.98558
aF-116.91599
aF-116.78785
aF-116.68707
aF-116.586
aF-116.53639
aF-116.48747
aF-116.48287
aF-116.5292
aF-116.5582
aF-116.59288
aF-116.64142
aF-116.67231
aF-116.72418
aF-116.84323
aF-116.84184
aF-116.91095
aF-117.04624
aF-117.12982
aF-117.21535
aF-117.18981
aF-117.02756
aF-116.95804
aF-116.98544
aF-117.02682
aF-117.02653
aF-117.02653
aF-117.02634
aF-117.02622
aF-117.02916
aF-117.18204
aF-117.33055
aF-117.46483
aF-117.51839
aF-117.62441
aF-117.71943
aF-117.79003
aF-117.90359
aF-117.99278
aF-118.06386
aF-118.09918
aF-118.19842
aF-118.3477
aF-118.42657
aF-118.54194
aF-118.7824
aF-119.0022
aF-119.25103
aF-119.36302
aF-119.48157
aF-119.61469
aF-119.70479
aF-119.80128
aF-119.90622
aF-119.99917
aF-119.99917
aF-120.00104
aF-120.19996
aF-120.30731
aF-120.60306
aF-120.76508
aF-120.97395
aF-121.26065
aF-121.36025
aF-121.43715
aF-121.51946
aF-121.6122
aF-121.70538
aF-121.81573
aF-122.00032
aF-122.18647
aF-122.40756
aF-122.64619
aF-122.78389
aF-123.03178
aF-123.2737
aF-123.51413
aF-123.62007
aF-123.79381
aF-123.96782
aF-124.11879
aF-124.32883
aF-124.33196
aF-124.35706
aF-124.37165
aF-124.38448
aF-124.40706
aF-124.42006
aF-124.42538
aF-124.43283
aF-124.43399
aF-124.4518
aF-124.48203
aF-124.48247
aF-124.49412
aF-124.49013
aF-124.5004
aF-124.4987
aF-124.49788
aF-124.54663
aF-124.56975
aF-124.53523
aF-124.46789
aF-124.50122
aF-124.54572
aF-124.57552
aF-124.6302
aF-124.70354
aF-124.66627
aF-124.60686
aF-124.52499
aF-124.51324
aF-124.51492
aF-124.47363
aF-124.46501
aF-124.47771
aF-124.42564
aF-124.35811
aF-124.30563
aF-124.28033
aF-124.27963
aF-124.24702
aF-124.22848
aF-124.20881
aF-124.20941
aF-124.20177
aF-124.19702
aF-124.20085
aF-124.18886
aF-124.18638
aF-124.18432
aF-124.18227
aF-124.17825
aF-124.15798
aF-124.15695
aF-124.15961
aF-124.1399
aF-124.14839
aF-124.14506
aF-124.14785
aF-124.14826
aF-124.14037
aF-124.14678
aF-124.14442
aF-124.14135
aF-124.13029
aF-124.09805
aF-124.09349
aF-124.09032
aF-124.08771
aF-124.09747
aF-124.05985
aF-124.04782
aF-124.04563
aF-124.05843
aF-124.05104
aF-124.04301
aF-124.07698
aF-124.04702
aF-124.03582
aF-124.0615
aF-124.05937
aF-124.04594
aF-124.03678
aF-124.03
aF-124.01907
aF-124.01607
aF-124.01912
aF-124.06797
aF-124.06574
aF-124.03919
aF-124.043
aF-124.07373
aF-124.05759
aF-124.0105
aF-124.00341
aF-124.0098
aF-124.02306
aF-124.04318
aF-124.06731
aF-124.11128
aF-124.1491
aF-124.15935
aa(lp49
F-96.45238
aF-96.45203
aF-96.45166
aF-96.45139
aF-96.45166
aF-96.45193
aF-96.45247
aF-96.45274
aF-96.45315
aF-96.45323
aF-96.45331
aF-96.453
aF-96.45327
aF-96.45344
aF-96.45329
aF-96.45326
aF-96.45397
aF-96.5848
aF-96.59931
aF-96.55664
aF-96.52549
aF-96.53193
aF-96.5457
aF-96.58303
aF-96.57141
aF-96.49245
aF-96.4651
aF-96.45551
aF-96.4568
aF-96.49605
aF-96.50208
aF-96.51918
aF-96.53314
aF-96.5555
aF-96.58379
aF-96.61132
aF-96.6223
aF-96.628
aF-96.59911
aF-96.56633
aF-96.50082
aF-96.44551
aF-96.44548
aF-96.44721
aF-96.64806
aF-96.72803
aF-96.92416
aF-97.05375
aF-97.21357
aF-97.30597
aF-97.46693
aF-97.81711
aF-97.96019
aF-98.11512
aF-98.33349
aF-98.5969
aF-98.99731
aF-99.25445
aF-99.55822
aF-99.8653
aF-100.29277
aF-100.67045
aF-101.11095
aF-101.80881
aF-102.4667
aF-102.87546
aF-103.34071
aF-103.68755
aF-104.04965
aF-104.05303
aF-104.05305
aF-104.05348
aF-104.05383
aF-104.05388
aF-104.0545
aF-104.05477
aF-104.05479
aF-104.05501
aF-104.05498
aF-104.05528
aF-104.05537
aF-104.05497
aF-104.05466
aF-104.05461
aF-104.05449
aF-104.05541
aF-104.05555
aF-104.05573
aF-104.05586
aF-104.05592
aF-104.0559
aF-104.05578
aF-104.05596
aF-104.05621
aF-104.05626
aF-104.0577
aF-104.0577
aF-104.0577
aF-104.04013
aF-104.04006
aF-104.03959
aF-104.03997
aF-104.04
aF-104.04032
aF-104.04019
aF-104.04019
aF-104.04053
aF-104.04078
aF-104.04102
aF-104.04153
aF-104.0412
aF-104.04138
aF-104.04149
aF-104.0415
aF-104.04199
aF-104.04227
aF-104.04249
aF-104.04271
aF-104.04379
aF-104.0441
aF-104.0448
aF-104.04497
aF-104.04539
aF-104.04544
aF-104.03371
aF-103.44516
aF-103.16001
aF-102.98343
aF-102.78855
aF-102.40751
aF-102.20142
aF-102.04022
aF-101.77862
aF-101.72172
aF-101.33389
aF-100.9352
aF-100.56563
aF-100.43208
aF-100.07133
aF-99.88012
aF-99.65552
aF-99.1968
aF-98.67773
aF-98.35219
aF-97.97878
aF-97.64674
aF-97.42856
aF-97.23228
aF-96.87069
aF-96.56408
aF-96.56367
aF-96.57002
aF-96.57112
aF-96.57752
aF-96.63671
aF-96.77795
aF-96.85387
aF-96.76906
aF-96.68714
aF-96.54928
aF-96.45448
aF-96.45238
aa.