(lp0
(lp1
F46.29443
aF46.26451
aF46.31405
aF46.34919
aF46.386
aF46.4515
aF46.49484
aF46.70068
aF46.87072
aF46.99981
aF47.11679
aF47.24981
aF47.36873
aF47.53363
aF47.59827
aF47.62237
aF47.62374
aF47.63637
aF47.65992
aF47.69242
aF47.71876
aF47.73377
aF47.75833
aF47.78478
aF47.80486
aF47.82616
aF47.84561
aF47.87479
aF47.88874
aF47.89721
aF47.92337
aF47.9541
aF47.98256
aF48.04947
aF48.13475
aF48.22821
aF48.31029
aF48.391
aF48.44593
aF48.49919
aF48.3845
aF48.25219
aF48.2498
aF48.26303
aF48.41169
aF48.48972
aF48.63121
aF48.75673
aF49.00208
aF49.00236
aF49.00208
aF49.0023
aF49.00232
aF49.00249
aF49.00215
aF48.9998
aF48.99828
aF48.99956
aF49.00075
aF49.00113
aF49.00055
aF49.00021
aF49.00059
aF49.00056
aF48.99987
aF48.99951
aF48.99991
aF49.00029
aF49.00026
aF49.00029
aF49.00023
aF49.00018
aF49.00024
aF49.00025
aF49.00031
aF49.00028
aF49.00024
aF49.00035
aF49.00033
aF49.00028
aF49.00025
aF49.00019
aF49.00029
aF49.00042
aF49.00021
aF49.00047
aF49.00032
aF49.00036
aF48.99991
aF48.99991
aF48.99991
aF49.0006
aF49.00062
aF49.00067
aF49.00064
aF49.00073
aF49.00061
aF49.00065
aF49.0002
aF48.99984
aF48.99918
aF48.99917
aF48.99919
aF48.6964
aF48.55652
aF48.42804
aF48.31193
aF48.18938
aF48.1651
aF47.98025
aF47.86928
aF47.74415
aF47.68738
aF47.5696
aF47.40525
aF47.2386
aF47.05489
aF46.92218
aF46.81942
aF46.73512
aF46.62842
aF46.43711
aF46.37415
aF46.31855
aF46.26217
aF46.15127
aF46.07545
aF45.99541
aF45.99541
aF45.99695
aF45.99736
aF45.99831
aF46.00078
aF46.00064
aF46.00095
aF46.00105
aF45.93286
aF45.8262
aF45.70013
aF45.64028
aF45.62484
aF45.72654
aF45.68984
aF45.58297
aF45.60814
aF46.01141
aF46.18533
aF46.15052
aF46.14563
aF46.14601
aF46.14528
aF46.14706
aF46.2584
aF46.29684
aa(lp2
F39.63895
aF39.68084
aF39.72204
aF39.72221
aF39.7222
aF39.73488
aF39.74888
aF39.76135
aF39.77173
aF39.78801
aF39.8016
aF39.81366
aF39.82175
aF39.82696
aF39.82942
aF39.83268
aF39.83614
aF39.83726
aF39.83756
aF39.83875
aF39.83882
aF39.83893
aF39.83751
aF39.83697
aF39.83548
aF39.83347
aF39.82007
aF39.81568
aF39.8093
aF39.80276
aF39.80192
aF39.79708
aF39.74322
aF39.73779
aF39.72974
aF39.72069
aF39.71366
aF39.70891
aF39.69577
aF39.686
aF39.67039
aF39.66109
aF39.64809
aF39.64428
aF39.63731
aF39.63123
aF39.60261
aF39.59436
aF39.58646
aF39.58047
aF39.54504
aF39.52509
aF39.49939
aF39.375
aF39.26254
aF39.05618
aF38.78866
aF38.78664
aF38.78608
aF38.78452
aF38.77758
aF38.77562
aF38.77235
aF38.77221
aF38.77211
aF38.76757
aF38.76159
aF38.76106
aF38.75615
aF38.75011
aF38.75
aF38.74853
aF38.74504
aF38.734
aF38.72792
aF38.71991
aF38.71692
aF38.71197
aF38.70245
aF38.69989
aF38.69937
aF38.69222
aF38.68596
aF38.68327
aF38.67968
aF38.67591
aF38.67
aF38.66624
aF38.66197
aF38.65521
aF38.64973
aF38.64588
aF38.64566
aF38.64062
aF38.63645
aF38.63582
aF38.63343
aF38.63168
aF38.63053
aF38.62932
aF38.62878
aF38.62805
aF38.62584
aF38.62511
aF38.62298
aF38.61657
aF38.61444
aF38.6125
aF38.59584
aF38.57737
aF38.56095
aF38.55272
aF38.54979
aF38.53916
aF38.52817
aF38.51822
aF38.50993
aF38.50011
aF38.50011
aF38.49709
aF38.49245
aF38.48684
aF38.48623
aF38.47928
aF38.47385
aF38.4663
aF38.45163
aF38.4513
aF38.45127
aF38.4512
aF38.45127
aF38.45213
aF38.45296
aF38.45417
aF38.45498
aF38.45568
aF38.4567
aF38.45914
aF38.53663
aF38.61755
aF38.741
aF38.85078
aF38.95625
aF39.05593
aF39.11274
aF39.21291
aF39.38449
aF39.47745
aF39.5557
aa(lp3
F38.97872
aF38.98378
aF38.96493
aF38.95822
aF38.95274
aF38.94054
aF38.93524
aF38.91827
aF38.91004
aF38.90488
aF38.90021
aF38.89608
aF38.88947
aF38.88526
aF38.88081
aF38.873
aF38.8684
aF38.862
aF38.85742
aF38.84892
aF38.84307
aF38.83371
aF38.8261
aF38.79317
aF38.79164
aF38.82234
aF38.83161
aF38.83859
aF38.83995
aF38.84557
aF38.85301
aF38.85896
aF38.8632
aF38.86401
aF38.87119
aF38.87316
aF38.87508
aF38.8804
aF38.88678
aF38.8951
aF38.90084
aF38.90237
aF38.90237
aF38.90347
aF38.90577
aF38.90994
aF38.91472
aF38.9196
aF38.92367
aF38.92765
aF38.93318
aF38.93434
aF38.93435
aF38.95647
aa(lp4
F42.49273
aF42.49433
aF42.49562
aF42.49561
aF42.49472
aF42.49462
aF42.49481
aF42.49242
aF42.49489
aF42.49604
aF42.49624
aF42.49623
aF42.4969
aF42.49727
aF42.49916
aF42.50051
aF42.50223
aF42.50373
aF42.5052
aF42.50571
aF42.50585
aF42.5083
aF42.50755
aF42.50764
aF42.5078
aF42.5083
aF42.50941
aF42.53186
aF42.58294
aF42.64872
aF42.66815
aF42.68371
aF42.71798
aF42.7376
aF42.75054
aF42.77482
aF42.82031
aF42.83081
aF42.86988
aF42.89828
aF42.92613
aF42.98578
aF43.04811
aF43.1165
aF43.16742
aF43.22769
aF43.28469
aF43.33061
aF43.36363
aF43.39671
aF43.45252
aF43.5004
aF43.50055
aF43.50073
aF43.772
aF43.86434
aF44.00925
aF44.14754
aF44.38641
aF44.55918
aF44.57147
aF44.68862
aF44.85841
aF45.08186
aF45.21248
aF45.34242
aF45.39338
aF45.46357
aF45.56645
aF45.68135
aF45.79523
aF45.90582
aF45.96895
aF46.01591
aF46.07835
aF46.31767
aF46.63861
aF46.7062
aF47.29148
aF47.2911
aF47.27588
aF46.55412
aF46.51168
aF46.50335
aF46.45715
aF46.40866
aF46.37766
aF46.3553
aF46.26802
aF46.2038
aF46.07388
aF46.02551
aF45.99133
aF46.00606
aF45.99719
aF45.98817
aF45.95395
aF45.92178
aF45.78338
aF45.74157
aF45.57352
aF45.40866
aF45.37709
aF45.27292
aF45.14918
aF42.49376
aF42.4935
aF42.49266
aa(lp5
F40.18683
aF40.39711
aF40.54795
aF40.61628
aF40.6388
aF40.63857
aF40.60962
aF40.55661
aF40.47381
aF40.40266
aF40.36837
aF40.32125
aF40.28191
aF40.17264
aF40.077
aF39.9769
aF39.93315
aF39.7865
aF39.72124
aF39.72143
aF39.72126
aF39.721
aF39.7212
aF39.72119
aF39.72106
aF39.7213
aF39.72069
aF39.72076
aF39.72098
aF39.72118
aF39.72107
aF39.72108
aF39.72015
aF39.2144
aF39.211
aF39.24006
aF39.3143
aF39.36393
aF39.38878
aF39.45704
aF39.47664
aF39.47462
aF39.56096
aF39.62184
aF39.55565
aF39.51986
aF39.53796
aF39.56115
aF39.60853
aF39.63593
aF39.65175
aF39.69042
aF39.62474
aF39.61082
aF39.5644
aF39.49927
aF39.42424
aF39.32135
aF39.32133
aF39.32101
aF39.32265
aF39.27076
aF38.97585
aF38.76314
aF38.69131
aF38.59352
aF38.47759
aF38.49826
aF38.51832
aF38.33302
aF38.1672
aF38.00331
aF37.78811
aF37.54224
aF37.39573
aF37.30287
aF37.33338
aF37.27016
aF37.22174
aF37.24748
aF37.2854
aF37.32681
aF37.36702
aF37.48515
aF37.53772
aF37.53797
aF37.53799
aF37.53328
aF37.52815
aF37.55479
aF37.55128
aF37.57457
aF37.59113
aF37.61321
aF37.62866
aF37.64735
aF37.62752
aF37.64419
aF37.66699
aF37.68676
aF37.7254
aF37.76427
aF37.79447
aF37.84111
aF37.88575
aF37.91679
aF37.9595
aF38.02918
aF38.13758
aF38.24733
aF38.35741
aF38.42163
aF38.4217
aF38.4078
aF38.49394
aF38.59253
aF38.76425
aF38.90618
aF38.97618
aF39.00578
aF38.923
aF39.03248
aF39.08398
aF39.14296
aF39.27704
aF39.35731
aF39.4772
aF39.56936
aF39.74113
aF39.91874
aF39.97809
aF40.03013
aF40.07415
aF40.11688
aF40.18675
aa(lp6
F24.72148
aF24.72333
aF24.72623
aF24.72628
aF24.70176
aF24.66794
aF24.62543
aF24.61694
aF24.6145
aF24.61309
aF24.60623
aF24.60417
aF24.6043
aF24.59071
aF24.59077
aF24.59069
aF24.58554
aF24.58114
aF24.57675
aF24.57528
aF24.57528
aF24.57591
aF24.57658
aF24.57813
aF24.58327
aF24.58254
aF24.58034
aF24.57814
aF24.57814
aF24.57936
aF24.58183
aF24.58481
aF24.5849
aF24.58961
aF24.59619
aF24.60264
aF24.61065
aF24.61921
aF24.62538
aF24.62543
aF24.64049
aF24.65648
aF24.6706
aF24.67812
aF24.68283
aF24.68467
aF24.68674
aF24.69295
aF24.69502
aF24.71568
aF24.71778
aFnan
aF30.99763
aF30.99761
aF30.99789
aF30.99796
aF30.99931
aF30.99468
aF30.99453
aF30.99327
aF30.997
aF31.00093
aF31.00068
aF31.00068
aF30.83896
aF30.70389
aF30.66308
aF30.59601
aF30.53222
aF30.49104
aF30.4583
aF30.43224
aF30.40143
aF30.37108
aF30.36191
aF30.36569
aF30.35858
aF30.40736
aF30.47325
aF30.54839
aF30.60704
aF30.68636
aF30.75567
aF30.80128
aF30.80873
aF30.7638
aF30.74793
aF30.72923
aF30.71244
aF30.71217
aF30.52655
aF30.31537
aF29.81151
aF29.6487
aF29.50025
aF29.22979
aF28.9214
aF28.40943
aF28.2106
aF28.07829
aF27.8753
aF27.62531
aF27.43672
aF26.94169
aF26.68748
aF26.42646
aF25.71036
aF25.53363
aF25.40626
aF25.28698
aF25.1254
aF25.0394
aF24.93695
aF24.82077
aF24.7147
aF24.65898
aF24.63065
aF24.58476
aF24.56203
aF24.4653
aF24.48664
aF24.40087
aF24.5
aF24.5747
aF24.65395
aF24.71753
aF24.77291
aF24.83073
aF24.875
aF24.87439
aF24.79338
aF24.84727
aF24.9309
aF25.10858
aF25.35706
aF25.51913
aF25.68897
aF25.80204
aF25.86479
aF26.0701
aF26.35451
aF26.37789
aF26.6552
aF26.99799
aF27.26077
aF27.57508
aF27.92705
aF28.06374
aF28.21281
aF28.31877
aF28.43734
aF28.55522
aF28.66929
aF28.7513
aF28.83351
aF28.88649
aF28.97339
aF29.04497
aF29.04763
aF29.27517
aF29.38432
aF29.52763
aF29.69166
aF29.85831
aF29.91491
aF30.01195
aF30.00328
aF29.98857
aF29.85732
aF29.83173
aF29.74316
aF29.65094
aF29.57522
aF29.53747
aF29.56047
aF29.59091
aF29.62587
aF29.60478
aF29.62445
aF29.68152
aF29.7447
aF29.8059
aF29.87011
aF29.90607
aF29.93779
aF29.99446
aF30.0731
aF30.25561
aF30.33812
aF30.23334
aF30.3002
aF30.3412
aF30.4151
aF30.4782
aF30.52315
aF30.55648
aF30.58513
aF30.62914
aF30.68835
aF30.71531
aF30.75054
aF30.7996
aF30.83021
aF30.85923
aF30.89199
aF30.94243
aa(lp7
F42.0564
aF42.10051
aF42.14132
aF42.19558
aF42.20782
aF42.28126
aF42.3709
aF42.45085
aF42.66754
aF42.92784
aF42.98878
aF43.02641
aF43.08959
aF43.14791
aF43.18826
aF43.49991
aF43.68192
aF43.72274
aF43.78102
aF43.80987
aF43.91411
aF44.00827
aF44.12492
aF44.26798
aF44.46779
aF44.47407
aF44.47555
aF44.93488
aF44.99233
aF44.99994
aF45.00276
aF45.00389
aF44.99958
aF44.99997
aF45.00032
aF45.00004
aF45.00061
aF45.00132
aF45.00123
aF45.00067
aF44.99626
aF44.99565
aF44.99428
aF44.99358
aF45.00034
aF45.00026
aF45.00039
aF44.99998
aF44.99964
aF44.99901
aF44.99835
aF44.99738
aF44.99738
aF44.99736
aF44.89596
aF44.8008
aF44.76792
aF44.70237
aF44.67308
aF44.57694
aF44.53558
aF44.42758
aF44.33037
aF44.2584
aF44.18038
aF44.11429
aF44.02684
aF43.94686
aF43.87498
aF43.75174
aF43.64966
aF43.5756
aF43.50396
aF43.42891
aF43.35212
aF43.28816
aF43.2032
aF43.12598
aF43.00077
aF43.00059
aF42.99997
aF42.82387
aF42.65019
aF42.61705
aF42.47312
aF42.26135
aF42.19867
aF42.14711
aF42.12262
aF42.09616
aF42.02571
aF41.99693
aF41.97263
aF41.929
aF41.875
aF41.84185
aF41.80402
aF41.7338
aF41.63839
aF41.54938
aF41.49972
aF41.44736
aF41.41683
aF41.2782
aF41.18064
aF41.01681
aF41.00141
aF41.00139
aF41.00162
aF41.00153
aF40.99826
aF40.9983
aF40.99818
aF40.99766
aF40.99722
aF40.99701
aF40.997
aF40.99927
aF41.00213
aF41.00315
aF41.00305
aF41.00283
aF41.00305
aF41.00228
aF41.00197
aF41.00205
aF41.00139
aF41.00011
aF41.00008
aF40.99996
aF41.0001
aF41.00013
aF41.00051
aF41.00066
aF41.00069
aF41.00064
aF40.99964
aF40.99871
aF40.9983
aF40.99841
aF40.99797
aF40.99766
aF40.99734
aF40.99634
aF40.99609
aF40.99533
aF40.99485
aF40.99635
aF40.99635
aF40.99725
aF40.9976
aF41.00917
aF41.10318
aF41.20441
aF41.36572
aF41.41513
aF41.52149
aF41.64119
aF41.83664
aF42.00034
aF42.00157
aF42.00318
aa(lp8
F43.5098
aF43.49599
aF43.47317
aF43.42156
aF43.37055
aF43.33741
aF43.28294
aF43.25463
aF43.22986
aF43.15789
aF42.91713
aF42.91638
aF42.94027
aF42.91555
aF42.87469
aF42.86892
aF42.87383
aF42.88653
aF42.87858
aF42.86657
aF42.86339
aF42.84025
aF42.80786
aF42.81722
aF42.79169
aF42.74096
aF42.74641
aF42.70239
aF42.69792
aF42.69979
aF42.70091
aF42.70279
aF42.7055
aF42.70909
aF42.71291
aF42.71415
aF42.71642
aF42.72004
aF42.72422
aF42.72684
aF42.72685
aF42.72753
aF42.82011
aF42.90946
aF43.00119
aF43.12531
aF43.20359
aF43.36427
aF43.5636
aF43.68464
aF43.7447
aF43.83801
aF43.96623
aF44.02465
aF44.12009
aF44.19826
aF44.26705
aF44.32545
aF44.39038
aF44.47794
aF44.56305
aF44.62761
aF44.72227
aF44.8446
aF44.92422
aF44.98941
aF45.01335
aF45.01472
aF45.01696
aF45.01978
aF45.02458
aF45.02785
aF45.03179
aF45.03948
aF45.04463
aF45.04834
aF45.05163
aF45.05707
aF45.05933
aF45.06337
aF45.06826
aF45.07103
aF45.07065
aF45.07616
aF45.0795
aF45.08355
aF45.08355
aF45.09131
aF45.09522
aF45.10211
aF45.10823
aF45.10969
aF45.11217
aF45.1132
aF45.11789
aF45.12376
aF45.12725
aF45.13245
aF45.13587
aF45.13846
aF45.14219
aF45.14506
aF45.14935
aF45.15261
aF45.15734
aF45.15914
aF45.16075
aF45.16228
aF45.16479
aF45.16663
aF45.16779
aF45.17077
aF45.17459
aF45.1795
aF45.18274
aF45.18641
aF45.19025
aF45.19235
aF45.19554
aF45.19697
aF45.19852
aF45.20025
aF45.20225
aF45.20617
aF45.20778
aF45.20902
aF45.21114
aF45.21358
aF45.21559
aF45.21724
aF45.2179
aF45.22172
aF45.22417
aF45.22525
aF45.22775
aF45.22858
aF45.23043
aF45.23175
aF45.23345
aF45.23485
aF45.23357
aF45.23937
aF45.23837
aF45.2461
aF45.25591
aF45.2689
aF45.27238
aF45.28703
aF45.29905
aF45.29638
aF45.28677
aF45.27294
aF45.26191
aF45.24961
aF45.25078
aF45.25394
aF45.2449
aF45.24452
aF45.24584
aF45.24446
aF45.26011
aF45.27475
aF45.28385
aF45.29951
aF45.30548
aF45.30545
aF45.04762
aF44.77752
aF44.44042
aF44.25907
aF44.06926
aF43.87502
aF43.73418
aF43.71967
aF43.70063
aF43.62797
aF43.57362
aF43.56134
aF43.54881
aF43.54129
aa(lp9
F40.12219
aF40.19729
aF40.25161
aF40.31878
aF40.38211
aF40.40412
aF40.43939
aF40.50181
aF40.54703
aF40.57402
aF40.57016
aF40.64788
aF40.6999
aF40.77705
aF40.84827
aF40.94118
aF41.00478
aF41.09556
aF41.14882
aF41.27927
aF41.35712
aF41.35742
aF41.35736
aF41.31837
aF41.28461
aF41.23097
aF41.19294
aF41.14676
aF41.13475
aF41.111
aF41.1056
aF41.07806
aF41.06071
aF41.0518
aF41.0308
aF41.01822
aF41.0066
aF40.96051
aF40.90506
aF40.848
aF40.76064
aF40.6613
aF40.6439
aF40.63759
aF40.57188
aF40.52129
aF40.4859
aF40.48979
aF40.48651
aF40.47589
aF40.42423
aF40.34501
aF40.27435
aF40.25011
aF40.21954
aF40.19021
aF40.12511
aF40.11295
aF40.10119
aF40.09764
aF40.08077
aF40.02113
aF40.00012
aF39.9768
aF39.87512
aF39.82959
aF39.78668
aF39.76243
aF39.73635
aF39.70703
aF39.66956
aF39.63156
aF39.61514
aF39.53299
aF39.50012
aF39.4526
aF39.44281
aF39.39825
aF39.37153
aF39.35449
aF39.34577
aF39.34272
aF39.33168
aF39.32068
aF39.31863
aF39.31229
aF39.30836
aF39.30241
aF39.30055
aF39.29823
aF39.28869
aF39.27958
aF39.27395
aF39.26667
aF39.25962
aF39.25576
aF39.24595
aF39.23456
aF39.21976
aF39.19925
aF39.18777
aF39.18345
aF39.17092
aF39.15269
aF39.14313
aF39.11482
aF39.10227
aF39.08457
aF39.06829
aF39.05644
aF39.04982
aF39.03221
aF39.02096
aF39.00922
aF39.00011
aF38.9932
aF38.9833
aF38.96766
aF38.95406
aF38.95064
aF38.94714
aF38.94279
aF38.92792
aF38.92309
aF38.92058
aF38.91856
aF38.91391
aF38.90696
aF38.90182
aF38.89901
aF38.89626
aF38.89303
aF38.8901
aF38.88885
aF38.88821
aF38.88792
aF38.8879
aF38.88761
aF38.88779
aF38.88677
aF38.88468
aF38.88288
aF38.88108
aF38.87973
aF38.87932
aF38.87511
aF38.87511
aF38.80208
aF38.80261
aF38.78866
aF39.05618
aF39.26254
aF39.375
aF39.49939
aF39.52509
aF39.54504
aF39.58047
aF39.58646
aF39.59436
aF39.60261
aF39.63123
aF39.63731
aF39.64428
aF39.64809
aF39.66109
aF39.67039
aF39.686
aF39.69577
aF39.70891
aF39.71366
aF39.72069
aF39.72974
aF39.73779
aF39.74322
aF39.79708
aF39.80192
aF39.802
aF39.849
aF39.9174
aF40.04445
aF40.0944
aa(lp10
F32.00032
aF32.00001
aF32.00041
aF32.0005
aF32.00198
aF32.00076
aF31.98981
aF31.93601
aF31.90997
aF31.84661
aF31.8054
aF31.78318
aF31.78328
aF31.78391
aF31.78394
aF31.78395
aF31.78399
aF31.784
aF31.78409
aF31.78395
aF31.78393
aF31.78371
aF31.78394
aF31.78404
aF31.78385
aF31.78384
aF31.78379
aF31.78378
aF31.78381
aF31.7837
aF31.78369
aF31.78367
aF31.78367
aF31.78355
aF31.78354
aF31.78377
aF31.78367
aF31.78366
aF31.78367
aF31.78365
aF31.78367
aF31.78365
aF31.7836
aF31.78365
aF31.78366
aF31.78365
aF31.78369
aF31.78365
aF31.78374
aF31.78374
aF31.78374
aF31.78374
aF31.7837
aF31.78371
aF31.78371
aF31.78368
aF31.78368
aF31.78368
aF31.78361
aF31.78363
aF31.78365
aF31.7836
aF31.78359
aF31.78359
aF31.7836
aF31.78363
aF31.78365
aF31.78361
aF31.78357
aF31.78351
aF31.7835
aF31.78353
aF31.78357
aF31.78358
aF31.78359
aF31.7836
aF31.74465
aF31.72969
aF31.72323
aF31.7194
aF31.71733
aF31.68878
aF31.62561
aF31.58935
aF31.5608
aF31.52581
aF31.50105
aF31.4998
aF31.47883
aF31.42917
aF31.37656
aF31.3561
aF31.3334
aF31.3334
aF31.33341
aF31.33347
aF31.33344
aF31.33336
aF31.33329
aF31.33323
aF31.33319
aF31.33307
aF31.33298
aF31.3329
aF31.33285
aF31.33273
aF31.33261
aF31.33226
aF31.33232
aF31.33231
aF31.33217
aF31.33224
aF31.3325
aF31.63698
aF31.87069
aF32.1771
aF32.40743
aF32.70386
aF33.07165
aF33.3477
aF33.71335
aF34.08446
aF34.44558
aF34.71264
aF34.91388
aF35.30697
aF35.45859
aF35.65092
aF35.81044
aF35.93088
aF36.03128
aF36.18724
aF36.29154
aF36.41637
aF36.54513
aF36.70384
aF36.8531
aF36.99897
aF36.99908
aF36.99908
aF36.99885
aF36.99887
aF36.99927
aF36.99924
aF37.0
aF37.00001
aF37.0
aF37.00001
aF37.00001
aF37.00014
aF36.99263
aF36.99303
aF36.99378
aF36.99469
aF36.99556
aF36.99578
aF36.99589
aF36.99527
aF36.9935
aF36.99367
aF36.99511
aF36.99669
aF36.99892
aF36.99956
aF37.00021
aF37.0001
aF37.00006
aF36.9686
aF36.95031
aF36.91582
aF36.91402
aF36.90243
aF36.89755
aF36.86996
aF36.81735
aF36.76898
aF36.74295
aF36.7193
aF36.7013
aF36.68525
aF36.67653
aF36.65329
aF36.6278
aF36.60265
aF36.5919
aF36.56927
aF36.56386
aF36.54875
aF36.52963
aF36.51475
aF36.50609
aF36.50046
aF36.5004
aF36.50042
aF35.76515
aF35.21202
aF35.1362
aF34.88888
aF34.67259
aF34.53564
aF34.40999
aF34.27181
aF34.03983
aF33.71754
aF33.35051
aF33.00011
aF32.59516
aF32.00034
aa(lp11
F33.56679
aF33.56763
aF33.55209
aF33.57438
aF33.59046
aF33.55937
aF33.58216
aF33.55404
aF33.55175
aF33.49066
aF33.46722
aF33.44967
aF33.4376
aF33.42372
aF33.40633
aF33.38629
aF33.35086
aF33.27941
aF33.13883
aF33.01922
aF32.77023
aF32.40053
aF31.99564
aF31.89178
aF31.85076
aF31.7436
aF31.62955
aF31.518
aF31.443
aF31.31095
aF31.20427
aF31.09414
aF31.09387
aF30.9912
aF30.87612
aF30.75555
aF30.67047
aF30.55335
aF30.43888
aF30.32839
aF30.24845
aF30.21093
aF30.17712
aF30.13622
aF30.05662
aF29.80964
aF29.59583
aF27.5672
aF25.94827
aF25.90896
aF25.83921
aF25.85572
aF25.8789
aF25.94065
aF25.99861
aF26.0259
aF26.03042
aF26.05616
aF26.06714
aF26.05585
aF26.11703
aF26.15718
aF26.20134
aF26.24539
aF26.37877
aF26.45192
aF26.98045
aF27.18199
aF27.28955
aF27.3865
aF27.58981
aF27.70531
aF27.94116
aF28.16745
aF28.34441
aF28.58867
aF28.79928
aF28.93753
aF29.16909
aF29.34771
aF29.5659
aF29.74106
aF29.77197
aF29.79132
aF29.79749
aF29.80637
aF29.86654
aF29.7848
aF29.76229
aF29.74468
aF29.591
aF29.45232
aF29.32779
aF29.21287
aF29.14069
aF29.04956
aF28.98147
aF29.04399
aF29.07006
aF29.15036
aF29.19322
aF29.26639
aF29.29762
aF29.35939
aF29.42449
aF29.51724
aF29.56325
aF29.62766
aF29.65712
aF29.70492
aF29.73881
aF29.77996
aF29.8159
aF29.84469
aF29.87736
aF29.9039
aF29.95607
aF30.00828
aF30.07676
aF30.11138
aF30.16742
aF30.2534
aF30.30319
aF30.35275
aF30.44016
aF30.509
aF30.54129
aF30.58149
aF30.60299
aF30.63503
aF30.68287
aF30.68666
aF30.73048
aF30.75286
aF30.7879
aF30.80118
aF30.80767
aF30.81698
aF30.83921
aF30.84878
aF30.86324
aF30.88955
aF30.92472
aF30.96786
aF31.19898
aF31.5621
aF31.78302
aF31.8054
aF31.84661
aF31.90997
aF31.93601
aF31.98981
aF32.00076
aF32.00198
aF32.0005
aF32.00041
aF32.00001
aF32.00032
aF32.00034
aF32.59516
aF33.00011
aF33.35051
aF33.71754
aF34.03983
aF34.27181
aF34.40999
aF34.53564
aF34.67259
aF34.88888
aF35.1362
aF35.21202
aF35.76515
aF36.50042
aF36.5004
aF36.5004
aF36.4999
aF34.86376
aF34.3795
aF34.40147
aF34.21289
aF34.09407
aF33.99027
aF33.9066
aF33.80971
aF33.84767
aF33.85305
aF33.82223
aF33.69712
aF33.80397
aF33.85795
aF33.85989
aF33.88884
aF33.87507
aF33.94723
aF33.91018
aF33.85925
aF33.76758
aF33.72758
aF33.67014
aF33.63785
aF33.63787
aF33.63965
aF33.62581
aF33.599
aF33.57517
aF33.55887
aF33.55479
aF33.56656
aa(lp12
F31.09414
aF31.20427
aF31.31095
aF31.443
aF31.518
aF31.62955
aF31.7436
aF31.85076
aF31.89178
aF31.99564
aF32.40053
aF32.77023
aF33.01922
aF33.01921
aF33.01947
aF33.01943
aF33.01928
aF33.01864
aF33.01832
aF33.01817
aF33.01813
aF33.01774
aF33.01662
aF33.01547
aF33.01441
aF33.014
aF33.01269
aF33.01254
aF33.0115
aF33.01067
aF33.01005
aF33.00939
aF33.00833
aF33.00764
aF33.00665
aF33.00618
aF33.00589
aF33.00557
aF33.00411
aF33.00411
aF33.00314
aF32.76864
aF32.49499
aF32.26525
aF32.16335
aF32.06935
aF31.98546
aF31.82866
aF31.76306
aF31.69486
aF31.58557
aF31.36902
aF31.25014
aF30.99911
aF30.99982
aF31.00146
aF30.84527
aF30.73767
aF30.67352
aF30.60255
aF30.56208
aF30.50749
aF30.48195
aF30.41265
aF30.32549
aF30.16998
aF30.10249
aF30.07339
aF30.00401
aF29.93285
aF29.84077
aF29.74475
aF29.64845
aF29.57016
aF29.52692
aF29.48
aF29.45335
aF29.37521
aF29.33964
aF29.27446
aF29.26055
aF29.21023
aF29.14362
aF29.09419
aF29.06623
aF29.02768
aF28.99819
aF28.92248
aF28.96487
aF28.98433
aF28.95937
aF28.91707
aF28.87644
aF28.86063
aF28.86061
aF28.87524
aF28.91941
aF28.95968
aF29.01776
aF29.0976
aF29.12054
aF29.13816
aF29.15838
aF29.18393
aF29.19384
aF29.19462
aF29.17911
aF29.15934
aF29.11041
aF29.06454
aF29.03618
aF29.0326
aF29.01084
aF28.99579
aF29.0041
aF29.02562
aF28.9886
aF28.98763
aF28.99217
aF29.00955
aF29.05926
aF29.10645
aF29.11838
aF29.12177
aF29.131
aF29.14277
aF29.16984
aF29.20836
aF29.26259
aF29.30283
aF29.3454
aF29.35838
aF29.36621
aF29.37201
aF29.3602
aF29.38071
aF29.38548
aF29.36631
aF29.36269
aF29.40569
aF29.43134
aF29.46071
aF29.48334
aF29.50674
aF29.52692
aF29.53386
aF29.50445
aF29.48289
aF29.4987
aF29.51151
aF29.52713
aF29.54967
aF29.56488
aF29.59425
aF29.62774
aF29.6645
aF29.6839
aF29.70992
aF29.7264
aF29.72433
aF29.69776
aF29.69781
aF29.71513
aF29.70569
aF29.67973
aF29.63431
aF29.59686
aF29.80964
aF30.05662
aF30.13622
aF30.17712
aF30.21093
aF30.24845
aF30.32839
aF30.43888
aF30.55335
aF30.67047
aF30.75555
aF30.87612
aF30.9912
aF31.09387
aa(lp13
F34.95304
aF35.08139
aF35.09485
aF35.15834
aF35.16952
aF35.18727
aF35.19986
aF35.20069
aF35.18755
aF35.17278
aF35.15818
aF35.14413
aF35.12974
aF35.10764
aF35.06807
aF35.08466
aF35.00066
aF35.00066
aF34.99864
aF34.99591
aF34.99526
aF34.99409
aF34.99249
aF34.9921
aF34.98722
aF34.98754
aF34.98762
aF34.98745
aF34.98729
aF34.98739
aF34.9874
aF34.98736
aF34.98735
aF34.98726
aF34.98701
aF34.98719
aF34.9874
aF34.98752
aF34.98768
aF34.98788
aF34.98794
aF34.98816
aF34.98841
aF34.98841
aF34.98897
aF35.23958
aF35.24018
aF35.24783
aF35.35673
aF35.43936
aF35.55747
aF35.61936
aF35.78281
aF35.7903
aF35.87233
aF35.94724
aF36.0291
aF36.04671
aF35.95522
aF36.09655
aF36.13121
aF36.12275
aF36.17212
aF36.34924
aF36.35627
aF36.41797
aF36.46192
aF36.49923
aF36.53887
aF36.58816
aF36.58816
aF36.58802
aF36.58231
aF36.57897
aF36.5733
aF36.57295
aF36.56745
aF36.56317
aF36.56182
aF36.55032
aF36.54394
aF36.5425
aF36.54198
aF36.54082
aF36.54164
aF36.54213
aF36.54178
aF36.54094
aF36.54381
aF36.54397
aF36.54424
aF36.54522
aF36.5449
aF36.54432
aF36.55072
aF36.55055
aF36.55092
aF36.50016
aF36.24498
aF36.12517
aF36.00017
aF35.80477
aF35.75018
aF35.62518
aF35.50018
aF35.46571
aF35.44485
aF35.42477
aF35.40379
aF35.38172
aF35.3329
aF35.29694
aF35.25738
aF35.23133
aF35.19179
aF35.17089
aF35.16788
aF35.17185
aF35.1828
aF35.18283
aF35.17582
aF35.16021
aF35.1411
aF35.12116
aF35.11424
aF35.10314
aF35.09095
aF35.07159
aF35.05869
aF35.05145
aF35.03962
aF35.02431
aF35.01398
aF35.00739
aF35.00536
aF34.91883
aF34.84408
aF34.80867
aF34.77603
aF34.75132
aF34.73049
aF34.71681
aF34.64029
aF34.617
aF34.55636
aF34.53215
aF34.55263
aF34.5912
aF34.62156
aF34.63144
aF34.64478
aF34.64668
aF34.64077
aF34.63672
aF34.63445
aF34.63234
aF34.62896
aF34.62674
aF34.62352
aF34.595
aF34.58437
aF34.58048
aF34.54922
aF34.51412
aF34.48897
aF34.47845
aF34.46222
aF34.43592
aF34.40249
aF34.37424
aF34.32374
aF34.30696
aF34.29257
aF34.2583
aF34.24574
aF34.22181
aF34.18979
aF34.17102
aF34.14684
aF34.09071
aF34.03028
aF33.95478
aF33.90367
aF33.886
aF33.85737
aF33.83531
aF33.8047
aF33.78485
aF33.75377
aF33.7735
aF33.81216
aF33.85054
aF33.86413
aF33.86252
aF33.85972
aF33.8518
aF33.84326
aF33.81672
aF33.86655
aF34.01498
aF34.16427
aF34.36096
aF34.50112
aF34.64773
aF34.80745
aF34.81353
aF34.81821
aF34.95296
aa(lp14
F46.12486
aF46.12457
aF45.93524
aF45.93524
aF45.93585
aF45.93541
aF45.93602
aF45.93537
aF45.93586
aF45.93629
aF45.93843
aF45.93995
aF45.94102
aF45.94142
aF45.94207
aF45.94353
aF45.94376
aF45.94381
aF45.9441
aF45.94433
aF45.94442
aF45.94472
aF45.94476
aF45.94498
aF45.94507
aF45.94508
aF45.94515
aF45.94528
aF45.94528
aF45.94531
aF45.94643
aF46.11212
aF46.25767
aF46.37986
aF46.57961
aF46.72735
aF46.83214
aF46.93399
aF47.01725
aF47.08969
aF47.19969
aF47.33541
aF47.51405
aF47.67713
aF47.80855
aF47.89068
aF48.02422
aF48.16808
aF48.24928
aF48.34229
aF48.51119
aF48.63596
aF48.74078
aF48.87209
aF48.94064
aF48.99988
aF48.99988
aF48.99957
aF48.99953
aF48.99955
aF48.9996
aF48.99956
aF48.99953
aF48.99919
aF48.99907
aF48.99913
aF48.99906
aF48.99957
aF48.99956
aF48.99947
aF48.99933
aF48.99934
aF48.9993
aF48.99923
aF48.99928
aF48.99937
aF48.99933
aF48.99933
aF48.99912
aF48.99908
aF48.99903
aF48.99899
aF48.99897
aF48.99885
aF48.99879
aF48.99885
aF48.99887
aF48.99864
aF48.99883
aF48.9989
aF48.9989
aF48.99891
aF48.999
aF48.999
aF48.99912
aF48.99912
aF48.99917
aF48.99931
aF48.99964
aF48.99942
aF48.99939
aF48.99932
aF48.99953
aF48.99928
aF48.99928
aF48.99934
aF48.99925
aF48.99924
aF48.99956
aF48.99941
aF48.99938
aF48.99932
aF48.99957
aF48.99927
aF48.99929
aF48.99924
aF48.9992
aF48.9992
aF48.99922
aF48.99905
aF48.99906
aF48.99916
aF48.99922
aF48.99915
aF48.99926
aF48.99926
aF48.99936
aF48.99949
aF48.99978
aF48.99981
aF48.99981
aF49.0
aF49.0002
aF49.00005
aF49.00034
aF49.00038
aF49.00025
aF49.0003
aF49.00031
aF49.00029
aF49.0003
aF49.00031
aF49.0003
aF49.00049
aF49.00048
aF49.00063
aF49.00054
aF49.00057
aF49.00063
aF49.00066
aF49.00061
aF49.00047
aF49.00049
aF49.00053
aF49.0006
aF49.00054
aF49.00058
aF48.96428
aF48.83509
aF48.7473
aF48.61319
aF48.45813
aF48.17704
aF47.90646
aF47.80794
aF47.71572
aF47.59587
aF47.51493
aF47.44293
aF47.37287
aF47.28515
aF47.21724
aF47.14864
aF46.80371
aF46.6189
aF46.57556
aF46.52548
aF46.4675
aF46.41556
aF46.32698
aF46.21554
aa(lp15
F40.69689
aF40.58521
aF40.5833
aF40.52837
aF40.52783
aF40.52417
aF40.53739
aF40.56193
aF40.54015
aF40.51437
aF40.50906
aF40.50065
aF40.46521
aF40.4387
aF40.38685
aF40.35503
aF40.33099
aF40.31423
aF40.29116
aF40.24858
aF40.20308
aF40.16228
aF40.12281
aF40.0884
aF40.07119
aF40.05044
aF40.02858
aF40.00219
aF40.0
aF40.0
aF40.00018
aF40.00046
aF40.00063
aF40.00088
aF40.001
aF40.00128
aF40.00148
aF40.00147
aF40.002
aF40.0021
aF40.00214
aF40.00241
aF40.0024
aF40.00224
aF40.00223
aF40.00185
aF40.00183
aF40.00166
aF40.00165
aF40.00179
aF40.0019
aF40.0021
aF40.00244
aF40.00261
aF40.00309
aF40.00308
aF40.01399
aF40.1605
aF40.31022
aF40.48846
aF40.55651
aF40.61334
aF40.65115
aF40.69984
aF40.71742
aF40.75901
aF40.82214
aF40.87501
aF40.9255
aF40.97899
aF41.00247
aF41.00235
aF41.00245
aF41.00243
aF41.00234
aF41.00231
aF41.00239
aF41.00191
aF41.00185
aF41.0017
aF41.00166
aF41.00153
aF41.00141
aF41.01681
aF41.18064
aF41.2782
aF41.41683
aF41.44736
aF41.49972
aF41.54938
aF41.63839
aF41.7338
aF41.80402
aF41.84185
aF41.875
aF41.929
aF41.97263
aF41.99693
aF42.02571
aF42.09616
aF42.12262
aF42.14711
aF42.19867
aF42.26135
aF42.47312
aF42.61705
aF42.65019
aF42.82387
aF42.99997
aF43.00059
aF43.00059
aF43.00103
aF43.00086
aF43.00021
aF42.99973
aF42.99842
aF42.99786
aF42.99824
aF42.99883
aF42.9979
aF42.99799
aF42.99807
aF42.99824
aF42.99838
aF42.89153
aF42.81381
aF42.76872
aF42.86178
aF42.84992
aF42.86732
aF42.81832
aF42.77046
aF42.73033
aF42.66688
aF42.56082
aF42.49028
aF42.49063
aF42.4617
aF42.23534
aF42.19938
aF42.14725
aF42.08894
aF42.0381
aF42.00699
aF41.94844
aF41.87538
aF41.79607
aF41.74989
aF41.72099
aF41.69774
aF41.58368
aF41.47572
aF41.41677
aF41.32007
aF41.27757
aF41.30107
aF41.2498
aF41.19053
aF41.1552
aF41.04888
aF40.87444
aF40.69815
aa(lp16
F34.99603
aF34.99583
aF34.99547
aF34.9952
aF34.99516
aF34.99498
aF34.99477
aF34.99414
aF34.99455
aF34.99387
aF34.99378
aF34.99498
aF34.99509
aF34.99443
aF34.9945
aF34.99441
aF34.99447
aF34.9949
aF34.99496
aF34.99471
aF34.9952
aF34.99569
aF34.99569
aF34.99661
aF35.03267
aF35.17069
aF35.25318
aF35.29978
aF35.40933
aF35.43425
aF35.473
aF35.4591
aF35.43305
aF35.51216
aF35.55598
aF35.55828
aF35.54157
aF35.51904
aF35.54682
aF35.56156
aF35.59935
aF35.626
aF35.65436
aF35.7179
aF35.74893
aF35.78962
aF35.81378
aF35.8883
aF36.00052
aF36.00061
aF36.00063
aF36.07234
aF36.11008
aF36.11685
aF36.12628
aF36.16088
aF36.18519
aF36.2138
aF36.22689
aF36.23814
aF36.25276
aF36.24847
aF36.24808
aF36.23823
aF36.25007
aF36.2475
aF36.25466
aF36.27935
aF36.30261
aF36.33615
aF36.33702
aF36.38489
aF36.46447
aF36.49628
aF36.49821
aF36.49801
aF36.49797
aF36.49792
aF36.49792
aF36.49786
aF36.49785
aF36.49783
aF36.49783
aF36.49783
aF36.49783
aF36.49783
aF36.49783
aF36.49783
aF36.49783
aF36.49783
aF36.49783
aF36.49789
aF36.49772
aF36.49754
aF36.49774
aF36.49774
aF36.49777
aF36.49774
aF36.4977
aF36.4977
aF36.4977
aF36.49769
aF36.46179
aF36.49893
aF36.49903
aF36.4991
aF36.50324
aF36.50236
aF36.5028
aF36.5028
aF36.50228
aF36.5023
aF36.502
aF36.50194
aF36.50118
aF36.50037
aF36.49767
aF36.67792
aF36.63914
aF36.64188
aF36.64789
aF36.64903
aF36.6231
aF36.61624
aF36.62151
aF36.62586
aF36.60766
aF36.59606
aF36.59132
aF36.58639
aF36.59879
aF36.60081
aF36.60081
aF36.59886
aF36.59754
aF36.59729
aF36.59743
aF36.59393
aF36.594
aF36.59378
aF36.59347
aF36.59376
aF36.59366
aF36.5938
aF36.59479
aF36.59464
aF36.59565
aF36.59574
aF36.59565
aF36.59531
aF36.59497
aF36.5946
aF36.59478
aF36.59445
aF36.59544
aF36.61488
aF36.61267
aF36.58893
aF36.58816
aF36.58816
aF36.53887
aF36.49923
aF36.46192
aF36.41797
aF36.35627
aF36.34924
aF36.17212
aF36.12275
aF36.13121
aF36.09655
aF35.95522
aF36.04671
aF36.0291
aF35.94724
aF35.87233
aF35.7903
aF35.78281
aF35.61936
aF35.55747
aF35.43936
aF35.35673
aF35.24783
aF35.24018
aF35.23958
aF34.98897
aF34.98841
aF34.98841
aF34.98831
aF34.98801
aF34.9882
aF34.98827
aF34.98802
aF34.98808
aF34.98785
aF34.98775
aF34.9879
aF34.98765
aF34.98686
aF34.98657
aF34.98653
aF34.9863
aF34.98579
aF34.98557
aF34.98533
aF34.98498
aF34.98449
aF34.98411
aF34.98355
aF34.98293
aF34.983
aF34.9836
aF34.98468
aF34.98468
aF34.98481
aF34.98813
aF34.98883
aF34.99031
aF34.99152
aF34.99051
aF34.99075
aF34.99142
aF34.99201
aF34.99195
aF34.99198
aF34.9919
aF34.99274
aF34.99491
aF34.9977
aF34.99958
aF35.00123
aF35.00217
aF35.00258
aF35.00309
aF35.0037
aF35.00466
aF35.00563
aF35.00593
aF35.00704
aF34.99605
aF34.99563
aF34.99546
aF34.99561
aF34.99561
aF34.99603
aa(lp17
F40.69116
aF40.69118
aF40.6911
aF40.6909
aF40.69073
aF40.69058
aF40.69046
aF40.69031
aF40.69023
aF40.69021
aF40.69008
aF40.68994
aF40.68972
aF40.68959
aF40.68927
aF40.68915
aF40.68898
aF40.68886
aF40.68876
aF40.68866
aF40.68861
aF40.68854
aF40.68858
aF40.68866
aF40.68874
aF40.68888
aF40.68902
aF40.68914
aF40.68927
aF40.68949
aF40.68964
aF40.68986
aF40.69017
aF40.6905
aF40.69054
aF40.69056
aF40.69065
aF40.69068
aF40.69072
aF40.69085
aF40.691
aF40.69111
aF40.69114
aF40.69113
aF40.69115
aFnan
aF40.70047
aF40.69925
aF40.69922
aF40.69915
aF40.69909
aF40.69903
aF40.69897
aF40.69892
aF40.69888
aF40.69887
aF40.69887
aF40.69891
aF40.69898
aF40.69908
aF40.69915
aF40.69918
aF40.69913
aF40.69908
aF40.69903
aF40.69901
aF40.69928
aF40.69928
aF40.69937
aF40.69945
aF40.69955
aF40.69962
aF40.69974
aF40.69984
aF40.69991
aF40.70003
aF40.7001
aF40.70014
aF40.70017
aF40.70028
aF40.70039
aF40.70048
aF40.70054
aF40.7006
aF40.70064
aF40.70065
aF40.70063
aF40.70059
aF40.70054
aF40.70051
aFnan
aF42.00059
aF42.00007
aF42.00019
aF41.99985
aF41.99937
aF41.99856
aF42.18115
aF42.52096
aF42.67703
aF42.83271
aF42.92336
aF42.95776
aF43.02896
aF43.07146
aF43.09586
aF43.10915
aF43.12686
aF43.15183
aF43.16968
aF43.18755
aF43.23297
aF43.25373
aF43.31256
aF43.50002
aF43.6304
aF43.6336
aF43.6315
aF43.63148
aF43.63154
aF43.63108
aF43.62942
aF43.70812
aF44.09085
aF44.12389
aF44.20417
aF44.29588
aF44.34386
aF44.34737
aF44.34687
aF44.34913
aF44.39292
aF44.47164
aF44.50968
aF44.52695
aF44.5684
aF44.61221
aF44.69375
aF44.71913
aF44.74268
aF44.77347
aF44.80752
aF44.83681
aF44.85633
aF44.86403
aF44.8775
aF44.88845
aF44.89668
aF44.91823
aF44.92574
aF44.92945
aF44.94691
aF44.96593
aF44.98341
aF44.98371
aF44.99763
aF45.00459
aF45.01144
aF45.01354
aF45.00506
aF44.99248
aF44.99056
aF45.00005
aF45.00005
aF44.99954
aF44.99951
aF44.99918
aF44.99861
aF44.99784
aF44.99673
aF44.99485
aF44.99311
aF44.99218
aF44.9921
aF44.99207
aF44.99166
aF44.99222
aF44.99394
aF44.99582
aF44.99775
aF45.00276
aF45.00291
aF45.00602
aF45.00878
aF45.01041
aF45.01051
aF45.01084
aF44.83409
aF44.76071
aF44.66963
aF44.56884
aF44.53427
aF44.50862
aF44.45301
aF44.24369
aF44.18609
aF44.10372
aF43.99465
aF43.87505
aF43.79807
aF43.72325
aF43.674
aF43.62939
aF43.58303
aF43.62447
aF43.62437
aF43.5787
aF43.56653
aF43.53499
aF43.39973
aF43.04681
aF42.74602
aF42.74594
aF42.74439
aF42.7086
aF42.61177
aF42.59021
aF42.57318
aF42.53522
aF42.49777
aF42.47967
aF42.46481
aF42.45756
aF42.44793
aF42.42949
aF42.4009
aF42.38641
aF42.37737
aF42.35163
aF42.34927
aF42.34353
aF42.32909
aF42.25009
aF42.23331
aF42.19023
aF42.1634
aF42.12309
aF42.08735
aF42.04964
aF42.04964
aF42.04638
aF41.95746
aF41.8829
aF41.7489
aF41.62512
aF41.49007
aF41.4634
aF41.44947
aF41.39063
aF41.31968
aF41.2464
aF41.19542
aF41.17253
aF41.15369
aF41.1361
aF41.10729
aF41.05714
aF41.03641
aF41.02167
aF40.99452
aF40.96545
aF41.02587
aF41.09369
aF41.17324
aF41.25667
aF41.30512
aF41.30448
aF41.27625
aF41.27069
aF41.2537
aF41.25362
aF41.2501
aF41.20324
aF41.18428
aF41.1841
aF41.07716
aF40.99825
aF40.99063
aF40.96394
aF40.86098
aF40.74557
aF40.6251
aF40.61167
aF40.56257
aF40.53731
aF40.52282
aF40.53454
aF40.49521
aF40.48979
aF40.4859
aF40.52129
aF40.57188
aF40.63759
aF40.6439
aF40.6613
aF40.76064
aF40.848
aF40.90506
aF40.96051
aF41.0066
aF41.01822
aF41.0308
aF41.0518
aF41.06071
aF41.07806
aF41.1056
aF41.111
aF41.13475
aF41.14676
aF41.19294
aF41.23097
aF41.28461
aF41.31837
aF41.35736
aF41.35742
aF41.43064
aF41.43346
aF41.46071
aF41.48221
aF41.53402
aF41.59112
aF41.61798
aF41.68048
aF41.73989
aF41.79594
aF41.83952
aF41.87077
aF41.86715
aF41.95468
aF41.99667
aF41.99861
aF41.99871
aF42.00048
aF42.00044
aa(lp18
F41.22158
aF41.24365
aF41.29158
aF41.34961
aF41.44163
aF41.51721
aF41.55044
aF41.64064
aF41.67413
aF41.71723
aF41.75918
aF41.82006
aF41.88874
aF41.95513
aF42.33009
aF42.33647
aF42.34319
aF42.34974
aF42.35587
aF42.36137
aF42.36709
aF42.36842
aF42.37141
aF42.37506
aF42.37506
aF42.37744
aF42.38093
aF42.38331
aF42.38545
aF42.38719
aF42.39155
aF42.39416
aF42.40091
aF42.41036
aF42.41796
aF42.42492
aF42.44648
aF42.4634
aF42.47302
aF42.50004
aF42.50006
aF42.51603
aF42.18115
aF41.99856
aF41.99937
aF41.99985
aF42.00019
aF42.00007
aF42.00059
aF42.00044
aF42.00048
aF41.99871
aF41.99861
aF41.99667
aF41.95468
aF41.86715
aF41.87077
aF41.83952
aF41.79594
aF41.73989
aF41.68048
aF41.61798
aF41.59112
aF41.53402
aF41.48221
aF41.46071
aF41.43346
aF41.43064
aF41.35742
aF41.35712
aF41.27927
aF41.14882
aF41.09556
aF41.00478
aF40.94118
aF40.84827
aF40.77705
aF40.6999
aF40.64788
aF40.57016
aF40.57402
aF40.54703
aF40.50181
aF40.43939
aF40.40412
aF40.38211
aF40.31878
aF40.25161
aF40.19729
aF40.12219
aF40.0944
aF40.04445
aF39.9174
aF39.849
aF39.802
aF39.80192
aF39.80276
aF39.8093
aF39.81568
aF39.82007
aF39.83347
aF39.83548
aF39.83697
aF39.83751
aF39.83893
aF39.83882
aF39.83875
aF39.83756
aF39.83726
aF39.83614
aF39.83268
aF39.82942
aF39.82696
aF39.82175
aF39.81366
aF39.8016
aF39.78801
aF39.77173
aF39.76135
aF39.74888
aF39.73488
aF39.7222
aF39.72221
aF39.72219
aF39.72178
aF39.7213
aF39.7212
aF39.72121
aF39.7211
aF39.72055
aF39.7207
aF39.71994
aF39.71987
aF39.71991
aF39.72002
aF39.72016
aF39.72104
aF39.72155
aF39.72236
aF39.72238
aF39.72215
aF39.72259
aF39.72234
aF39.72284
aF39.72294
aF39.72301
aF39.72286
aF39.72248
aF39.72198
aF39.72108
aF39.72107
aF39.72118
aF39.72098
aF39.72076
aF39.72069
aF39.7213
aF39.72106
aF39.72119
aF39.7212
aF39.721
aF39.72126
aF39.72143
aF39.72124
aF39.7865
aF39.93315
aF39.9769
aF40.077
aF40.17264
aF40.28191
aF40.32125
aF40.36837
aF40.40266
aF40.47381
aF40.55661
aF40.60962
aF40.63857
aF40.6388
aF40.65321
aF40.72383
aF40.76627
aF40.80787
aF40.86955
aF40.90232
aF40.96092
aF41.00985
aF41.06155
aF41.12499
aF41.18818
aF41.22051
aa(lp19
F41.23132
aF41.23793
aF41.24531
aF41.2501
aF41.26368
aF41.27413
aF41.282
aF41.28932
aF41.29402
aF41.29402
aF41.28618
aF41.27155
aF41.2501
aF41.24582
aF41.24088
aF41.23517
aF41.22693
aF41.21749
aF41.20947
aF41.20473
aF41.1947
aF41.18874
aF41.18625
aF41.18129
aF41.17579
aF41.16816
aF41.16117
aF41.15566
aF41.14806
aF41.13923
aF41.13054
aF41.1251
aF41.12219
aF41.11749
aF41.11554
aF41.11162
aF41.10708
aF41.10311
aF41.10166
aF41.10082
aF41.10008
aF41.09779
aF41.09718
aF41.09634
aF41.09583
aF41.09662
aF41.09741
aF41.09909
aF41.10098
aF41.10345
aF41.10843
aF41.11414
aF41.11988
aF41.12582
aF41.12825
aF41.13429
aF41.1415
aF41.1489
aF41.15891
aF41.16886
aF41.17885
aF41.18465
aF41.1945
aF41.20063
aF41.2066
aF41.21546
aF41.21781
aF41.22399
aFnan
aF41.76434
aF41.67761
aF41.67337
aF41.66371
aF41.65399
aF41.60369
aF41.54358
aF41.43132
aF41.42196
aF41.41332
aF41.41147
aF41.37771
aF41.37508
aF41.33901
aF41.3126
aF41.31097
aF41.3088
aF41.30736
aF41.30736
aF41.30736
aF41.30773
aF41.30808
aF41.3088
aF41.3126
aF41.31625
aF41.32094
aF41.32096
aF41.31704
aF41.31678
aF41.31384
aF41.31259
aF41.3115
aF41.306
aF41.30614
aF41.30484
aF41.30376
aF41.30316
aF41.30269
aF41.30182
aF41.30012
aF41.29836
aF41.29832
aF41.2969
aF41.29665
aF41.29249
aF41.28908
aF41.28735
aF41.28539
aF41.28521
aF41.28387
aF41.28374
aF41.28265
aF41.2816
aF41.28074
aF41.2806
aF41.28094
aF41.28115
aF41.27962
aF41.27796
aF41.27789
aF41.27688
aF41.27545
aF41.27537
aF41.27497
aF41.275
aF41.27483
aF41.27459
aF41.27425
aF41.27476
aF41.27511
aF41.27346
aF41.27217
aF41.27192
aF41.2501
aF41.18438
aF41.1841
aF41.18428
aF41.20324
aF41.2501
aF41.25362
aF41.2537
aF41.27069
aF41.27625
aF41.30448
aF41.30454
aF41.31924
aF41.34279
aF41.36486
aF41.37585
aF41.38202
aF41.38966
aF41.40517
aF41.41279
aF41.41949
aF41.41597
aF41.43871
aF41.46077
aF41.51726
aF41.55723
aF41.57286
aF41.59388
aF41.63037
aF41.66302
aF41.70876
aF41.7745
aF41.82064
aF41.86571
aF41.91745
aF41.95386
aF42.00422
aF42.00806
aF42.00874
aF42.01103
aF42.01338
aF42.0147
aF42.01662
aF42.0179
aF42.0102
aF41.95103
aF41.9123
aF41.89549
aF41.8912
aF41.8452
aF41.8251
aF41.80012
aF41.79375
aF41.78958
aF41.78542
aF41.78242
aa(lp20
F40.68928
aF40.4958
aF40.30302
aF40.09896
aF39.99994
aF39.75817
aF39.61018
aF39.45715
aF39.36296
aF39.23851
aF39.08777
aF38.90545
aF38.75165
aF38.55049
aF38.20495
aF37.95499
aF37.77873
aF37.70735
aF37.47222
aF37.13439
aF37.0004
aF36.99997
aF36.817
aF36.60322
aF36.37619
aF36.21464
aF36.09833
aF36.01461
aF36.10119
aF36.15058
aF36.11546
aF36.05493
aF35.98542
aF35.9167
aF35.86436
aF35.81412
aF35.73579
aF35.66942
aF35.60517
aF35.5417
aF35.49125
aF35.37012
aF35.21811
aF35.14231
aF35.11791
aF35.07971
aF35.00332
aF35.00186
aF35.00195
aF35.15341
aF35.38796
aF35.59033
aF35.81231
aF36.0018
aF36.14577
aF36.37205
aF36.75057
aF37.08441
aF37.43715
aF37.6185
aF37.75309
aF37.96065
aF38.30368
aF38.60904
aF38.83427
aF38.98156
aF39.37557
aF39.57782
aF39.79567
aF40.08934
aF40.39719
aF40.86934
aF41.26742
aF41.97905
aF41.99454
aF41.99484
aF41.9972
aF41.99746
aF41.99621
aF41.99594
aF41.99572
aF41.99428
aF41.99384
aF41.99375
aF41.99259
aF41.99478
aF41.99586
aF41.99629
aF41.99699
aF41.9975
aF41.99767
aF41.99804
aF41.99817
aF41.99842
aF41.99819
aF41.99836
aF41.99915
aF41.9994
aF41.9996
aF42.00038
aF42.00018
aF42.00025
aF41.99989
aF41.99876
aF41.99812
aF41.99766
aF41.99686
aF41.99632
aF41.99768
aF41.99765
aF41.99804
aF41.99855
aF41.99677
aF41.99701
aF41.99676
aF41.99648
aF41.9961
aF41.99615
aF41.99607
aF41.99977
aF41.99991
aF41.9962
aF41.99503
aF41.9946
aF41.99501
aF41.99437
aF41.99407
aF41.99372
aF41.99372
aF41.89425
aF41.59062
aF41.36
aF41.05548
aF40.76026
aF40.68985
aa(lp21
F38.90237
aF38.90084
aF38.8951
aF38.88678
aF38.8804
aF38.87508
aF38.87316
aF38.87119
aF38.86401
aF38.8632
aF38.85896
aF38.85301
aF38.84557
aF38.83995
aF38.83859
aF38.83161
aF38.82234
aF38.79164
aF38.72543
aF38.71004
aF38.69834
aF38.62346
aF38.5218
aF38.36877
aF38.24466
aF38.16462
aF38.10689
aF37.94854
aF37.97602
aF38.02783
aF38.01342
aF37.91863
aF37.89709
aF37.86967
aF37.85262
aF37.83061
aF37.81198
aF37.8104
aF37.81853
aF37.77136
aF37.75627
aF37.74891
aF37.74685
aF37.74446
aF37.74172
aF37.73919
aF37.73655
aF37.73398
aF37.73043
aF37.72755
aF37.72542
aF37.72244
aF37.71934
aF37.71627
aF37.7136
aF37.71134
aF37.70894
aF37.70624
aF37.70303
aF37.69871
aF37.69432
aF37.68963
aF37.68516
aF37.67936
aF37.67467
aF37.67003
aF37.66611
aF37.66096
aF37.65488
aF37.65188
aF37.64828
aF37.6443
aF37.63746
aF37.63394
aF37.6307
aF37.60615
aF37.6033
aF37.60213
aF37.60029
aF37.59855
aF37.59705
aF37.5948
aF37.59276
aF37.58944
aF37.58679
aF37.58336
aF37.58162
aF37.57919
aF37.5767
aF37.57421
aF37.57203
aF37.56889
aF37.56636
aF37.56387
aF37.56131
aF37.55925
aF37.55672
aF37.55425
aF37.55114
aF37.5486
aF37.54539
aF37.54268
aF37.5399
aF37.53756
aF37.53552
aF37.53291
aF37.53005
aF37.52842
aF37.52668
aF37.4865
aF37.46558
aF37.45099
aF37.40226
aF37.36386
aF37.31258
aF37.26997
aF37.25964
aF37.24569
aF37.19699
aF37.1751
aF37.12514
aF37.10526
aF37.07395
aF37.00014
aF36.93646
aF36.857
aF36.76012
aF36.73421
aF36.69078
aF36.64463
aF36.56274
aF36.55092
aF36.55055
aF36.55072
aF36.54432
aF36.5449
aF36.54522
aF36.54424
aF36.54397
aF36.54381
aF36.54094
aF36.54178
aF36.54213
aF36.54164
aF36.54082
aF36.54198
aF36.5425
aF36.54394
aF36.55032
aF36.56182
aF36.56317
aF36.56745
aF36.57295
aF36.5733
aF36.57897
aF36.58231
aF36.58802
aF36.58816
aF36.58893
aF36.61267
aF36.61488
aF36.59544
aF36.59445
aF36.59478
aF36.5946
aF36.59497
aF36.59531
aF36.59565
aF36.59574
aF36.59565
aF36.59464
aF36.59479
aF36.5938
aF36.59366
aF36.59376
aF36.59347
aF36.59378
aF36.594
aF36.59393
aF36.59743
aF36.59729
aF36.59754
aF36.59886
aF36.60081
aF36.60081
aF36.60115
aF36.62378
aF36.67009
aF36.67899
aF36.71334
aF36.73959
aF36.76161
aF36.79669
aF36.85299
aF36.86025
aF36.88316
aF36.92506
aF36.95792
aF36.9772
aF36.99004
aF37.00539
aF37.03072
aF37.0717
aF37.13151
aF37.16534
aF37.20643
aF37.24026
aF37.26062
aF37.30262
aF37.3961
aF37.53629
aF37.53797
aF37.53772
aF37.48515
aF37.36702
aF37.32681
aF37.2854
aF37.24748
aF37.22174
aF37.27016
aF37.33338
aF37.30287
aF37.39573
aF37.54224
aF37.78811
aF38.00331
aF38.1672
aF38.33302
aF38.51832
aF38.49826
aF38.47759
aF38.59352
aF38.69131
aF38.76314
aF38.97585
aF39.27076
aF39.32265
aF39.32101
aF39.32133
aF39.32132
aF39.30555
aF39.22055
aF39.18751
aF39.15328
aF39.11847
aF39.0734
aF39.05664
aF39.04377
aF39.02951
aF38.98551
aF38.96706
aF38.96752
aF38.94939
aF38.93434
aF38.93318
aF38.92765
aF38.92367
aF38.9196
aF38.91472
aF38.90994
aF38.90577
aF38.90347
aF38.90237
aa(lp22
F38.215
aF38.40118
aF38.60929
aF38.81393
aF38.95788
aF39.11656
aF39.22605
aF39.36423
aF39.56752
aF39.79876
aF40.03782
aF40.18844
aF40.2929
aF40.41493
aF40.50615
aF40.68445
aF40.87296
aF41.00066
aF41.00051
aF41.00013
aF41.0001
aF40.99996
aF41.00008
aF41.00011
aF41.00139
aF41.00205
aF41.00197
aF41.00228
aF41.00305
aF41.00283
aF41.00305
aF41.00315
aF41.00213
aF40.99927
aF40.997
aF40.99701
aF40.99722
aF40.99766
aF40.99818
aF40.9983
aF40.99826
aF41.00153
aF41.00162
aF41.00139
aF41.00141
aF41.00153
aF41.00166
aF41.0017
aF41.00185
aF41.00191
aF41.00239
aF41.00231
aF41.00234
aF41.00243
aF41.00245
aF41.00235
aF41.00247
aF40.97899
aF40.9255
aF40.87501
aF40.82214
aF40.75901
aF40.71742
aF40.69984
aF40.65115
aF40.61334
aF40.55651
aF40.48846
aF40.31022
aF40.1605
aF40.01399
aF40.00308
aF40.00061
aF39.87098
aF39.67645
aF39.53889
aF39.40853
aF39.33572
aF39.24305
aF38.84279
aF38.66387
aF38.59586
aF38.52933
aF38.47219
aF38.41997
aF38.30634
aF38.26504
aF38.17556
aF38.05734
aF37.94303
aF37.80941
aF37.68749
aF37.49347
aF37.45597
aF37.3385
aF37.22191
aF37.10676
aF36.99352
aF36.99302
aF36.99306
aF36.99305
aF36.99311
aF36.99325
aF36.99357
aF36.99367
aF36.9942
aF36.99439
aF36.99425
aF36.99441
aF36.99457
aF36.99479
aF36.99494
aF36.99487
aF36.99513
aF36.99504
aF36.9952
aF36.99557
aF36.99885
aF36.99977
aF36.99959
aF36.99944
aF36.99908
aF36.99855
aF36.99852
aF37.0001
aF37.0001
aF37.00021
aF36.99956
aF36.99892
aF36.99669
aF36.99511
aF36.99367
aF36.9935
aF36.99527
aF36.99589
aF36.99578
aF36.99556
aF36.99469
aF36.99378
aF36.99303
aF36.99263
aF37.00014
aF37.00001
aF37.00001
aF37.0
aF37.00001
aF37.0
aF36.99924
aF36.99927
aF36.99887
aF36.99885
aF36.99908
aF36.99908
aF37.01706
aF37.09597
aF37.20443
aF37.35363
aF37.5667
aF37.7899
aF37.97469
aF38.10272
aF38.21472
aa(lp23
F37.77205
aF37.77078
aF37.76913
aF37.76387
aF37.75892
aF37.75498
aF37.75258
aF37.74993
aF37.74865
aF37.74782
aF37.7463
aF37.74428
aF37.74195
aF37.73973
aF37.73683
aF37.73219
aF37.72531
aF37.72106
aF37.71535
aF37.70996
aF37.70924
aF37.70246
aF37.69762
aF37.69093
aF37.68654
aF37.68235
aF37.67658
aF37.66977
aF37.66338
aF37.65835
aF37.65198
aF37.64658
aF37.6439
aF37.64178
aF37.64102
aF37.63993
aF37.63983
aF37.64177
aF37.64151
aF37.64522
aF37.65033
aF37.65865
aF37.66732
aF37.67304
aF37.68258
aF37.69007
aF37.69232
aF37.69684
aF37.70075
aF37.70579
aF37.71187
aF37.71369
aF37.71407
aF37.71359
aF37.71265
aF37.71405
aF37.71544
aF37.71673
aF37.71939
aF37.72616
aF37.73228
aF37.73784
aF37.74353
aF37.74993
aF37.75593
aF37.7636
aF37.77183
aF37.77573
aF37.77611
aF37.79236
aF37.79688
aF37.802
aF37.80707
aF37.80744
aF37.81195
aF37.81672
aF37.81968
aF37.82166
aF37.82306
aF37.82254
aF37.82188
aF37.81815
aF37.81383
aF37.79982
aF37.78888
aF37.78043
aF37.77837
aF37.77715
aF37.77709
aF37.77607
aF37.77493
aF37.77352
aFnan
aF33.53589
aF33.53582
aF33.5342
aF33.53271
aF33.53185
aF33.53029
aF33.52743
aF33.52426
aF33.52065
aF33.51768
aF33.51384
aF33.51066
aF33.50556
aF33.50002
aF33.4953
aF33.48521
aF33.4733
aF33.46683
aF33.45792
aF33.45289
aF33.44317
aF33.43111
aF33.42859
aF33.42344
aF33.41996
aF33.41849
aF33.4213
aF33.41677
aF33.41505
aF33.41287
aF33.41222
aF33.41102
aF33.41255
aF33.4138
aF33.41677
aF33.42139
aF33.42687
aF33.43524
aF33.44044
aF33.44501
aF33.45115
aF33.45632
aF33.46229
aF33.46894
aF33.47428
aF33.48007
aF33.48578
aF33.49119
aF33.49542
aF33.49518
aF33.50002
aF33.50002
aF33.5056
aF33.50986
aF33.51547
aF33.51926
aF33.52289
aF33.52644
aF33.5303
aF33.53291
aF33.53515
aF33.53642
aF33.53671
aF33.53643
aF33.53603
aF33.53676
aF33.53716
aF33.53729
aF33.53722
aF33.53862
aF33.53962
aF33.54012
aF33.54
aF33.53919
aF33.53834
aF33.53755
aFnan
aF32.87504
aF32.87173
aF32.86377
aF32.85347
aF32.83639
aF32.82083
aF32.81053
aF32.79826
aF32.78885
aF32.7768
aF32.77057
aF32.76581
aF32.76708
aF32.76885
aF32.77023
aF32.76808
aF32.76356
aF32.7585
aF32.75523
aF32.75191
aF32.75059
aF32.75004
aF32.75103
aF32.75511
aF32.76018
aF32.76682
aF32.77472
aF32.77916
aF32.7855
aF32.79203
aF32.79688
aF32.79957
aF32.80472
aF32.80877
aF32.81277
aF32.82068
aF32.8288
aF32.83735
aF32.84944
aF32.85456
aF32.86573
aF32.87152
aF32.87884
aF32.88383
aF32.89047
aF32.90356
aF32.90661
aF32.91243
aF32.9182
aF32.92612
aF32.92931
aF32.93685
aF32.94723
aF32.95363
aF32.96221
aF32.96909
aF32.97536
aF32.98261
aF32.99284
aF32.99777
aF33.00003
aF33.01214
aF33.02636
aF33.04935
aF33.06685
aF33.08188
aF33.08566
aF33.08632
aF33.08711
aF33.08222
aF33.07863
aF33.06786
aF33.04989
aF33.03788
aF33.03059
aF33.01792
aF33.00818
aF33.00462
aF33.00003
aF32.99578
aF32.98912
aF32.97525
aF32.96797
aF32.96175
aF32.95795
aF32.94958
aF32.94211
aF32.93647
aF32.93179
aF32.91784
aF32.91508
aF32.91185
aF32.9096
aF32.90869
aF32.90507
aF32.90012
aF32.8945
aF32.88968
aF32.88443
aF32.87975
aF32.87678
aFnan
aF33.41669
aF33.40972
aF33.40363
aF33.38984
aF33.38074
aF33.37502
aF33.36413
aF33.3534
aF33.33834
aF33.31303
aF33.29106
aF33.28047
aF33.2725
aF33.25909
aF33.25101
aF33.25003
aF33.24847
aF33.24861
aF33.25003
aF33.25507
aF33.2623
aF33.2652
aF33.26794
aF33.26596
aF33.26746
aF33.27289
aF33.28407
aF33.28966
aF33.31518
aF33.33105
aF33.35065
aF33.36935
aF33.37503
aF33.38023
aF33.38103
aF33.39087
aF33.40619
aF33.41507
aF33.42868
aF33.44531
aF33.46733
aF33.48594
aF33.50003
aF33.50576
aF33.51082
aF33.51821
aF33.52403
aF33.52898
aF33.53185
aF33.53232
aF33.53198
aF33.53088
aF33.52841
aF33.52926
aF33.52947
aF33.52948
aF33.52929
aF33.52833
aF33.52921
aF33.53019
aF33.53084
aF33.53126
aF33.53144
aF33.53118
aF33.53015
aF33.52869
aF33.52692
aF33.52491
aF33.52267
aF33.52163
aF33.51838
aF33.51573
aF33.51615
aF33.51606
aF33.51543
aF33.513
aF33.51043
aF33.50688
aF33.50339
aF33.50003
aF33.48944
aF33.48894
aF33.48716
aF33.48387
aF33.48178
aF33.48078
aF33.47927
aF33.47671
aF33.47449
aF33.47345
aF33.47157
aF33.4711
aF33.469
aF33.46492
aF33.45938
aF33.45782
aF33.45388
aF33.44804
aF33.44198
aF33.43414
aF33.42514
aFnan
aF34.06867
aF34.06506
aF34.03658
aF34.00001
aF33.98654
aF33.96543
aF33.95636
aF33.95332
aF33.95378
aF33.95591
aF33.97065
aF33.97634
aF33.95492
aF33.94496
aF33.93808
aF33.93588
aF33.93626
aF33.9264
aF33.91844
aF33.90963
aF33.9114
aF33.91061
aF33.90132
aF33.90749
aF33.92265
aF33.93967
aF33.9239
aF33.89438
aF33.88525
aF33.875
aF33.86432
aF33.85051
aF33.84235
aF33.85343
aF33.86629
aF33.87598
aF33.89233
aF33.90844
aF33.94336
aF33.96224
aF33.96637
aF33.96139
aF33.96743
aF33.97495
aF33.97627
aF33.98428
aF33.99735
aF34.02282
aF34.05169
aF34.06864
aF34.09856
aF34.12647
aF34.14642
aF34.15134
aF34.14508
aF34.13929
aF34.15748
aF34.15873
aF34.15242
aF34.14145
aF34.12328
aF34.1138
aF34.10412
aF34.0818
aF34.06508
aF34.05803
aF34.06114
aF34.06022
aF34.06136
aF34.0757
aF34.07881
aF34.07805
aF34.07449
aF34.0864
aF34.09061
aF34.08404
aF34.06487
aF34.09674
aF34.11256
aF34.12866
aF34.12935
aF34.12608
aF34.125
aF34.12019
aF34.10638
aF34.11194
aF34.11092
aF34.10175
aF34.09031
aF34.07122
aF34.08673
aF34.0927
aF34.10564
aF34.10811
aF34.10778
aF34.09871
aF34.08584
aF34.07183
aF34.06474
aF34.06769
aF34.06604
aFnan
aF33.23455
aF33.24497
aF33.24891
aF33.25322
aF33.25902
aF33.27304
aF33.28596
aF33.29934
aF33.30925
aF33.3148
aF33.3204
aF33.32582
aF33.32779
aF33.32828
aF33.32764
aF33.33118
aF33.33416
aF33.33526
aF33.33486
aF33.331
aF33.32911
aF33.32715
aF33.32514
aF33.31683
aF33.30574
aF33.30103
aF33.30033
aF33.30003
aF33.29894
aF33.29877
aF33.29623
aF33.28951
aF33.28351
aF33.28007
aF33.27438
aF33.27092
aF33.26763
aF33.26476
aF33.26324
aF33.25578
aF33.2534
aF33.25003
aF33.24522
aF33.24206
aF33.23487
aF33.22832
aF33.22145
aF33.21482
aF33.20851
aF33.2026
aF33.19763
aF33.19503
aF33.19219
aF33.19071
aF33.18948
aF33.18628
aF33.18084
aF33.16699
aF33.16527
aF33.16461
aF33.1644
aF33.16364
aF33.16349
aF33.16367
aF33.16391
aF33.1666
aF33.16701
aF33.16739
aF33.16739
aF33.16742
aF33.16776
aF33.169
aF33.17089
aF33.17266
aF33.17325
aF33.17392
aF33.17647
aF33.17882
aF33.18028
aF33.18061
aF33.18126
aF33.18152
aF33.18248
aF33.18462
aF33.18648
aF33.1885
aF33.19019
aF33.19553
aF33.19673
aF33.199
aF33.20324
aF33.20692
aF33.21273
aF33.21725
aF33.22248
aF33.22501
aF33.22683
aF33.22786
aF33.22874
aF33.23041
aF33.23247
aFnan
aF34.87057
aF34.86997
aF34.79181
aF34.71453
aF34.64288
aF34.47903
aF34.41527
aF34.31087
aF34.17212
aF34.12866
aF34.04257
aF33.96372
aF33.91285
aF33.84446
aF33.6969
aF33.58709
aF33.47131
aF33.39691
aF33.23376
aF33.03255
aF32.97206
aF32.87408
aF32.73487
aF32.73137
aF32.73946
aF32.71943
aF32.71875
aF32.70253
aF32.66605
aF32.66438
aF32.64163
aF32.6211
aF32.61112
aF32.59913
aF32.58952
aF32.57725
aF32.56578
aF32.55977
aF32.54863
aF32.54234
aF32.5395
aF32.6209
aF32.65404
aF32.83452
aF33.07321
aF33.3123
aF33.40862
aF33.49087
aF33.55979
aF33.63031
aF33.66343
aF33.93905
aF33.98697
aF33.97556
aF33.98382
aF34.07434
aF34.23687
aF34.34814
aF34.34275
aF34.36437
aF34.41671
aF34.41798
aF34.39674
aF34.4893
aF34.51999
aF34.60609
aF34.7177
aF34.80895
aF34.9015
aF35.03457
aF35.11198
aF35.24362
aF35.37806
aF35.4377
aF35.60068
aF35.81771
aF36.14645
aF36.20183
aF36.25918
aF36.32734
aF36.37682
aF36.42509
aF36.50891
aF36.58872
aF36.87495
aF37.02483
aF37.14967
aF37.31479
aF37.47338
aF37.62752
aF37.82781
aF37.89376
aF37.97575
aF37.98809
aF38.28431
aF38.40068
aF38.49991
aF38.66066
aF38.84412
aF39.03837
aF39.1249
aF39.21873
aF39.34835
aF39.44394
aF39.55492
aF39.68453
aF39.82699
aF39.95662
aF40.09338
aF40.27564
aF40.45264
aF40.71898
aF40.9617
aF41.03142
aF41.09222
aF41.13756
aF41.18092
aF41.25705
aF41.29199
aF41.31575
aF41.36383
aF41.38412
aF41.51075
aF41.6897
aF41.78831
aF41.85879
aF41.99807
aF41.99833
aF41.99703
aF41.99625
aF41.99569
aF41.99984
aF42.00086
aF42.00197
aF42.00302
aF42.00388
aF42.00482
aF42.00869
aF42.00755
aF42.00397
aF42.00262
aF42.00077
aF41.99933
aF41.99827
aF41.99738
aF41.99668
aF41.99759
aF41.99336
aF41.99387
aF41.99309
aF41.99313
aF41.99443
aF41.99514
aF41.99454
aF41.97905
aF41.26742
aF40.86934
aF40.39719
aF40.08934
aF39.79567
aF39.57782
aF39.37557
aF38.98156
aF38.83427
aF38.60904
aF38.30368
aF37.96065
aF37.75309
aF37.6185
aF37.43715
aF37.08441
aF36.75057
aF36.37205
aF36.14577
aF36.0018
aF35.81231
aF35.59033
aF35.38796
aF35.15341
aF35.00195
aF35.00186
aa(lp24
F30.99763
aF30.94243
aF30.89199
aF30.85923
aF30.83021
aF30.7996
aF30.75054
aF30.71531
aF30.68835
aF30.62914
aF30.58513
aF30.55648
aF30.52315
aF30.4782
aF30.4151
aF30.3412
aF30.3002
aF30.21934
aF30.21183
aF30.20594
aF30.19818
aF30.19616
aF30.19176
aF30.18656
aF30.17891
aF30.17738
aF30.17733
aF30.17707
aF30.177
aF30.17719
aF30.17956
aF30.17834
aF30.17674
aF30.17652
aF30.17652
aF30.17649
aF30.17687
aF30.1776
aF30.17789
aF30.17702
aF30.17615
aF30.17513
aF30.17455
aF30.17457
aF30.17342
aF30.16973
aF30.16417
aF30.16006
aF30.1556
aF30.15522
aF30.15038
aF30.14669
aF30.14656
aF30.14561
aF30.14469
aF30.14444
aF30.14443
aF30.14601
aF30.14715
aF30.14956
aF30.15248
aF30.15452
aF30.15634
aF30.16209
aF30.16638
aF30.16656
aF30.16697
aF30.16723
aF30.16774
aF30.16853
aF30.16962
aF30.17047
aF30.17208
aF30.17362
aF30.17541
aF30.17797
aF30.18023
aF30.18206
aF30.18437
aF30.18536
aF30.18704
aF30.1893
aF30.19037
aF30.19438
aF30.19836
aF30.19951
aF30.20009
aF30.20009
aF30.20002
aF30.19943
aF30.19864
aF30.19745
aF30.19649
aF30.19521
aF30.19437
aF30.19361
aF30.19242
aF30.18837
aF30.18464
aF30.18415
aF30.1817
aF30.18007
aF30.17884
aF30.17796
aF30.17782
aF30.17895
aF30.18024
aF30.1823
aF30.18485
aF30.18782
aF30.19009
aF30.18638
aF30.1809
aF30.17454
aF30.17041
aF30.16561
aF30.16395
aF30.16034
aF30.15854
aF30.53499
aF30.58693
aF30.68067
aF30.78599
aF30.93955
aF31.15233
aF31.27855
aF31.44239
aF31.69982
aF31.86548
aF32.04029
aF32.23449
aF32.48854
aF32.8198
aF33.20332
aF33.49014
aF33.66042
aF33.86065
aF33.98611
aF34.27688
aF34.45476
aF34.64853
aF34.8091
aF34.88335
aF34.99564
aF34.99563
aF34.99605
aF35.00704
aF35.00593
aF35.00563
aF35.00466
aF35.0037
aF35.00309
aF35.00258
aF35.00217
aF35.00123
aF34.99958
aF34.9977
aF34.99491
aF34.99274
aF34.9919
aF34.99198
aF34.99195
aF34.99201
aF34.99142
aF34.99075
aF34.99051
aF34.99152
aF34.99031
aF34.98883
aF34.98813
aF34.98481
aF34.98468
aF34.97706
aF34.54709
aF34.26694
aF33.72644
aF33.03927
aF32.83884
aF32.77862
aF32.71683
aF32.68003
aF32.64101
aF32.62406
aF32.50756
aF32.37384
aF32.27437
aF32.22975
aF32.19125
aF32.0779
aF31.95246
aF31.87476
aF31.76266
aF31.66947
aF31.57709
aF31.41047
aF31.25921
aF31.13952
aF31.00147
aF31.00068
aF31.00093
aF30.997
aF30.99327
aF30.99453
aF30.99468
aF30.99931
aF30.99796
aF30.99789
aF30.99761
aa(lp25
F33.56679
aF33.56656
aF33.55479
aF33.55887
aF33.57517
aF33.599
aF33.62581
aF33.63965
aF33.63787
aF33.63789
aF33.79747
aF33.89111
aF34.04429
aF34.24918
aF34.35846
aF34.37586
aF34.41525
aF34.63637
aF34.86113
aF34.90768
aF35.12629
aF35.22431
aF35.28961
aF35.3189
aF35.36161
aF35.40509
aF35.56173
aF35.67384
aF35.79384
aF35.90628
aF35.98969
aF36.12621
aF36.24019
aF36.34574
aF36.49847
aF36.49941
aF36.49944
aF36.49878
aF36.49921
aF36.49853
aF36.49806
aF36.49766
aF36.49791
aF36.49858
aF36.49956
aF36.49713
aF36.49836
aF36.49846
aF36.49808
aF36.47858
aF36.41869
aF36.3856
aF36.31659
aF36.2656
aF36.22665
aF36.20033
aF36.15962
aF36.11715
aF36.06774
aF35.99568
aF35.99782
aF36.00059
aF36.00061
aF36.00052
aF35.8883
aF35.81378
aF35.78962
aF35.74893
aF35.7179
aF35.65436
aF35.626
aF35.59935
aF35.56156
aF35.54682
aF35.51904
aF35.54157
aF35.55828
aF35.55598
aF35.51216
aF35.43305
aF35.4591
aF35.473
aF35.43425
aF35.40933
aF35.29978
aF35.25318
aF35.17069
aF35.03267
aF34.99661
aF34.99569
aF34.99185
aF34.84818
aF34.86453
aF34.77566
aF34.77479
aF34.76026
aF34.69708
aF34.63382
aF34.64398
aF34.43438
aF34.36762
aF34.24578
aF34.18388
aF34.09795
aF33.96401
aF33.86407
aF33.77731
aF33.68833
aF33.58229
aF33.45628
aF33.39601
aF33.38283
aF33.27903
aF33.24322
aF33.13073
aF33.00416
aF33.00411
aF33.00411
aF33.00557
aF33.00589
aF33.00618
aF33.00665
aF33.00764
aF33.00833
aF33.00939
aF33.01005
aF33.01067
aF33.0115
aF33.01254
aF33.01269
aF33.014
aF33.01441
aF33.01547
aF33.01662
aF33.01774
aF33.01813
aF33.01817
aF33.01832
aF33.01864
aF33.01928
aF33.01943
aF33.01947
aF33.01921
aF33.01922
aF33.13883
aF33.27941
aF33.35086
aF33.38629
aF33.40633
aF33.42372
aF33.4376
aF33.44967
aF33.46722
aF33.49066
aF33.55175
aF33.55404
aF33.58216
aF33.55937
aF33.59046
aF33.57438
aF33.55209
aF33.56763
aa(lp26
F42.73602
aF42.73765
aF42.73808
aF42.73916
aF42.73926
aF42.74022
aF42.74106
aF42.74163
aF42.74219
aF42.74263
aF42.74331
aF42.74433
aF42.74486
aF42.74495
aF42.74591
aF42.74594
aF42.74602
aF43.04681
aF43.39973
aF43.53499
aF43.56653
aF43.5787
aF43.62437
aF43.62447
aF43.58303
aF43.62939
aF43.674
aF43.72325
aF43.79807
aF43.87505
aF43.99465
aF44.10372
aF44.18609
aF44.24369
aF44.45301
aF44.50862
aF44.53427
aF44.56884
aF44.66963
aF44.76071
aF44.83409
aF45.01084
aF45.01094
aF45.01141
aF45.01172
aF45.01202
aF45.0127
aF45.01325
aF45.0136
aF45.01397
aF45.01466
aF45.0154
aF45.01477
aF45.0157
aF45.015
aF45.015
aF45.01509
aF45.01486
aF45.01472
aF45.01438
aF45.01423
aF45.01515
aF45.0157
aF45.01592
aF45.0166
aF45.01633
aF45.01592
aF45.01573
aF45.01566
aF45.01565
aF45.01546
aF45.01529
aF45.01479
aF45.01411
aF45.01324
aF45.01174
aF45.0117
aF45.01111
aF45.00827
aF45.00846
aF45.00852
aF45.00833
aF45.00792
aF45.00707
aF45.00683
aF45.00666
aF45.00658
aF45.00653
aF45.00624
aF45.00628
aF45.00609
aF45.00606
aF45.00589
aF45.00535
aF45.00425
aF45.00419
aF45.00448
aF45.00464
aF45.00515
aF45.00539
aF45.00567
aF45.00569
aF45.00618
aF45.00616
aF45.00602
aF45.00582
aF45.00565
aF45.00565
aF45.00564
aF45.00564
aF45.00564
aF45.0056
aF45.00583
aF45.00581
aF45.00582
aF45.00576
aF45.00604
aF45.00637
aF45.00678
aF45.00782
aF45.00802
aF45.00804
aF45.00836
aF45.00835
aF45.0078
aF45.00835
aF45.00921
aF45.01025
aF45.01084
aF45.01088
aF45.01093
aF45.01166
aF45.01145
aF45.01221
aF45.01228
aF45.01236
aF45.01271
aF45.0126
aF45.01249
aF45.01267
aF45.01269
aF45.0133
aF45.01335
aF45.01335
aF44.98941
aF44.92422
aF44.8446
aF44.72227
aF44.62761
aF44.56305
aF44.47794
aF44.39038
aF44.32545
aF44.26705
aF44.19826
aF44.12009
aF44.02465
aF43.96623
aF43.83801
aF43.7447
aF43.68464
aF43.5636
aF43.36427
aF43.20359
aF43.12531
aF43.00119
aF42.90946
aF42.82011
aF42.72753
aF42.72685
aF42.72696
aF42.72704
aF42.72999
aF42.73019
aF42.73098
aF42.73123
aF42.73254
aF42.73294
aF42.73336
aF42.7341
aF42.73532
aa(lp27
F39.93777
aF39.93851
aF40.13864
aF40.36321
aF40.37826
aF40.3787
aF40.57323
aF40.75094
aF40.90968
aF41.11477
aF41.18473
aF41.30931
aF41.41129
aF41.4317
aF41.43123
aF41.45447
aF41.45225
aF41.5062
aF41.51976
aF41.55285
aF41.61198
aF41.68909
aF41.76308
aF41.81002
aF41.87503
aF42.02001
aF42.09891
aF42.20545
aF42.30094
aF42.38789
aF42.50784
aF42.5083
aF42.5078
aF42.50764
aF42.50755
aF42.5083
aF42.50585
aF42.50571
aF42.5052
aF42.50373
aF42.50223
aF42.50051
aF42.49916
aF42.49727
aF42.4969
aF42.49623
aF42.49624
aF42.49604
aF42.49489
aF42.49242
aF42.49481
aF42.49462
aF42.49472
aF42.49561
aF42.49562
aF42.49433
aF42.49273
aF42.49266
aF42.4935
aF42.48891
aF42.38456
aF42.31435
aF42.23533
aF42.18538
aF42.17546
aF42.14941
aF42.12503
aF42.0971
aF42.09551
aF42.07287
aF42.0693
aF42.00003
aF42.00002
aF41.98659
aF41.93289
aF41.91258
aF41.90566
aF41.9034
aF41.89985
aF41.87503
aF41.85512
aF41.85301
aF41.84696
aF41.78343
aF41.7663
aF41.76096
aF41.69559
aF41.57005
aF41.42618
aF41.42487
aF41.1548
aF41.03953
aF40.81293
aF40.67549
aF40.54887
aF40.41088
aF40.26556
aF40.0664
aF39.89539
aF39.48392
aF39.28669
aF39.14803
aF38.99388
aF38.8879
aF38.75777
aF38.5833
aF38.45441
aF38.28262
aF38.2593
aF38.15042
aF38.02754
aF37.86924
aF37.79922
aF37.7984
aF37.73245
aF37.69875
aF37.62593
aF37.57223
aF37.51704
aF37.4727
aF37.46091
aF37.44274
aF37.40549
aF37.35622
aF37.29082
aF37.26499
aF37.21699
aF37.12664
aF37.07158
aF37.10853
aF37.13554
aF37.14471
aF37.1908
aF37.22489
aF37.22377
aF37.1734
aF37.11591
aF37.06808
aF36.98455
aF36.98088
aF37.06833
aF37.07764
aF37.28303
aF37.4531
aF37.63719
aF37.7393
aF37.80327
aF37.87923
aF37.86949
aF37.93884
aF38.00209
aF38.029
aF38.18082
aF38.36887
aF38.64441
aF38.86909
aF38.95562
aF38.94897
aF38.86965
aF39.22665
aF39.44272
aF39.70043
aa(lp28
F32.29667
aF32.24425
aF32.09197
aF32.03256
aF32.02926
aF32.01979
aF32.01137
aF32.00495
aF32.00022
aF31.99405
aF31.9822
aF31.96439
aF31.94
aF31.92388
aF31.89442
aF31.8753
aF31.85281
aF31.8338
aF31.80683
aF31.78822
aF31.7643
aF31.7485
aF31.72864
aF31.68863
aF31.62523
aF31.58648
aF31.53669
aF31.52317
aF31.51705
aF31.49808
aF31.48273
aF31.47701
aF31.47251
aF31.46522
aF31.45583
aF31.44578
aF31.43968
aF31.43304
aF31.42522
aF31.41926
aF31.41437
aF31.41025
aF31.40532
aF31.40248
aF31.39988
aF31.39509
aF31.38692
aF31.37979
aF31.37523
aF31.3553
aF31.33928
aF31.32745
aF31.32672
aF31.31124
aF31.30112
aF31.2975
aF31.27416
aF31.25023
aF31.23523
aF31.22093
aF31.20805
aF31.19952
aF31.18323
aF31.16729
aF31.16108
aF31.15845
aF31.15674
aF31.15188
aF31.14021
aF31.13116
aF31.12491
aF31.10944
aF31.09921
aF31.08095
aF31.06785
aF31.06266
aF31.06013
aF31.03712
aF31.01632
aF31.01026
aF31.00411
aF31.00024
aF30.98571
aF30.97077
aF30.9485
aF30.93588
aF30.91673
aF30.89584
aF30.87524
aF30.86345
aF30.84593
aF30.83634
aF30.82229
aF30.80195
aF30.79955
aF30.79024
aF30.77089
aF30.76467
aF30.7598
aF30.75748
aF30.75424
aF30.73847
aF30.7214
aF30.71421
aF30.71244
aF30.72923
aF30.74793
aF30.7638
aF30.80873
aF30.80128
aF30.75567
aF30.68636
aF30.60704
aF30.54839
aF30.47325
aF30.40736
aF30.35858
aF30.36569
aF30.36191
aF30.37108
aF30.40143
aF30.43224
aF30.4583
aF30.49104
aF30.53222
aF30.59601
aF30.66308
aF30.70389
aF30.83896
aF31.00068
aF31.00068
aF31.00147
aF31.13952
aF31.25921
aF31.41047
aF31.57709
aF31.66947
aF31.76266
aF31.87476
aF31.95246
aF32.0779
aF32.19125
aF32.22975
aF32.27437
aF32.37384
aF32.50756
aF32.62406
aF32.64101
aF32.68003
aF32.71683
aF32.77862
aF32.83884
aF33.03927
aF33.72644
aF34.26694
aF34.54709
aF34.97706
aF34.98468
aF34.98468
aF34.9836
aF34.983
aF34.98293
aF34.98355
aF34.98411
aF34.98449
aF34.98498
aF34.98533
aF34.98557
aF34.98579
aF34.9863
aF34.98653
aF34.98657
aF34.98686
aF34.98765
aF34.9879
aF34.98775
aF34.98785
aF34.98808
aF34.98802
aF34.98827
aF34.9882
aF34.98801
aF34.98831
aF34.98841
aF34.98841
aF34.98841
aF34.98816
aF34.98794
aF34.98788
aF34.98768
aF34.98752
aF34.9874
aF34.98719
aF34.98701
aF34.98726
aF34.98735
aF34.98736
aF34.9874
aF34.98739
aF34.98729
aF34.98745
aF34.98762
aF34.98754
aF34.98722
aF34.9921
aF34.99249
aF34.99409
aF34.99526
aF34.99591
aF34.99864
aF35.00066
aF35.00066
aF34.93614
aF34.88642
aF34.82447
aF34.69861
aF34.5708
aF34.47909
aF34.41355
aF34.29262
aF34.10328
aF33.93697
aF33.62895
aF33.37999
aF33.31564
aF33.27335
aF33.22185
aF33.05004
aF32.77213
aF32.56109
aF32.51591
aF32.44841
aF32.37254
aF32.35154
aF32.29677
aa(lp29
F41.42618
aF41.57005
aF41.69559
aF41.76096
aF41.76104
aF41.76029
aF41.76023
aF41.75972
aF41.75962
aF41.75967
aF41.75987
aF41.7604
aF41.76046
aF41.76046
aF41.76051
aF41.75994
aF41.75933
aF41.75908
aF41.75906
aF41.75909
aF41.75931
aF41.75987
aF41.75986
aF41.7596
aF41.75967
aF41.75961
aF41.75956
aF41.75992
aF41.74881
aF41.69612
aF41.69612
aF41.69464
aF41.60389
aF41.55718
aF41.47287
aF41.40873
aF41.31001
aF41.27179
aF41.18506
aF41.07024
aF40.97564
aF40.88703
aF40.81594
aF40.69148
aF40.56906
aF40.46558
aF40.35235
aF40.29178
aF40.19421
aF39.96958
aF39.79934
aF39.67734
aF39.56565
aF39.40532
aF39.31752
aF39.24848
aF39.10555
aF39.10548
aF39.1054
aF38.97383
aF38.87508
aF38.778
aF38.68959
aF38.72941
aF38.45401
aF38.38422
aF38.2858
aF38.22786
aF38.0877
aF37.97132
aF38.15851
aF37.96217
aF37.84141
aF37.93316
aF37.95776
aF37.81768
aF37.84926
aF37.93056
aF37.94232
aF37.91832
aF37.97146
aF37.83958
aF37.87652
aF37.79985
aF37.79922
aF37.86924
aF38.02754
aF38.15042
aF38.2593
aF38.28262
aF38.45441
aF38.5833
aF38.75777
aF38.8879
aF38.99388
aF39.14803
aF39.28669
aF39.48392
aF39.89539
aF40.0664
aF40.26556
aF40.41088
aF40.54887
aF40.67549
aF40.81293
aF41.03953
aF41.1548
aF41.42487
aa(lp30
F40.69689
aF40.69815
aF40.87444
aF41.04888
aF41.1552
aF41.19053
aF41.2498
aF41.30107
aF41.27757
aF41.32007
aF41.41677
aF41.47572
aF41.58368
aF41.69774
aF41.72099
aF41.74989
aF41.79607
aF41.87538
aF41.94844
aF42.00699
aF42.0381
aF42.08894
aF42.14725
aF42.19938
aF42.23534
aF42.4617
aF42.49063
aF42.49063
aF42.59567
aF42.67566
aF42.69783
aF42.71783
aF42.75315
aF42.78332
aF42.82472
aF42.84973
aF42.89055
aF42.93716
aF42.99727
aF43.05022
aF43.09637
aF43.1442
aF43.18002
aF43.22328
aF43.23908
aF43.27584
aF43.29448
aF43.33069
aF43.37124
aF43.40603
aF43.44418
aF43.47212
aF43.50043
aF43.50039
aF43.50039
aF43.50026
aF43.50019
aF43.50002
aF43.4999
aF43.50065
aF43.50095
aF43.50098
aF43.50097
aF43.50079
aF43.50032
aF43.50009
aF43.49979
aF43.49963
aF43.49954
aF43.4996
aF43.49978
aF43.50004
aF43.50023
aF43.50058
aF43.50071
aF43.50067
aF43.50068
aF43.50068
aF43.50074
aF43.50055
aF43.50055
aF43.5004
aF43.45252
aF43.39671
aF43.36363
aF43.33061
aF43.28469
aF43.22769
aF43.16742
aF43.1165
aF43.04811
aF42.98578
aF42.92613
aF42.89828
aF42.86988
aF42.83081
aF42.82031
aF42.77482
aF42.75054
aF42.7376
aF42.71798
aF42.68371
aF42.66815
aF42.64872
aF42.58294
aF42.53186
aF42.50941
aF42.5083
aF42.50784
aF42.38789
aF42.30094
aF42.20545
aF42.09891
aF42.02001
aF41.87503
aF41.81002
aF41.76308
aF41.68909
aF41.61198
aF41.55285
aF41.51976
aF41.5062
aF41.45225
aF41.45447
aF41.43123
aF41.4317
aF41.41129
aF41.30931
aF41.18473
aF41.11477
aF40.90968
aF40.75094
aF40.57323
aF40.3787
aF40.37826
aF40.37877
aF40.38952
aF40.43348
aF40.51007
aF40.61312
aF40.60357
aF40.60007
aF40.59753
aF40.59291
aF40.58798
aF40.58461
aF40.58092
aF40.58072
aF40.58046
aF40.58033
aF40.58009
aF40.57761
aF40.57548
aF40.57295
aF40.57135
aF40.57083
aF40.57257
aF40.5754
aF40.57908
aF40.58237
aF40.58521
aF40.58521
aa(lp31
F42.0324
aF42.0324
aF42.0362
aF42.02907
aF42.02112
aF42.02174
aF42.01586
aF42.00898
aF42.03653
aF42.03799
aF42.03964
aF42.04217
aF42.04408
aF42.04633
aF42.04817
aF42.05048
aF42.04964
aF42.04964
aF42.08735
aF42.12309
aF42.1634
aF42.19023
aF42.23331
aF42.25009
aF42.32909
aF42.34353
aF42.34927
aF42.35163
aF42.37737
aF42.38641
aF42.4009
aF42.42949
aF42.44793
aF42.45756
aF42.46481
aF42.47967
aF42.49777
aF42.53522
aF42.57318
aF42.59021
aF42.61177
aF42.7086
aF42.74439
aF42.74594
aF42.74591
aF42.74495
aF42.74486
aF42.74433
aF42.74331
aF42.74263
aF42.74219
aF42.74163
aF42.74106
aF42.74022
aF42.73926
aF42.73916
aF42.73808
aF42.73765
aF42.73602
aF42.73532
aF42.7341
aF42.73336
aF42.73294
aF42.73254
aF42.73123
aF42.73098
aF42.73019
aF42.72999
aF42.72704
aF42.72696
aF42.72685
aF42.72684
aF42.72422
aF42.72004
aF42.71642
aF42.71415
aF42.71291
aF42.70909
aF42.7055
aF42.70279
aF42.70091
aF42.69979
aF42.69792
aF42.70239
aF42.74641
aF42.74096
aF42.79169
aF42.81722
aF42.80786
aF42.84025
aF42.86339
aF42.86657
aF42.87858
aF42.88653
aF42.87383
aF42.86892
aF42.87469
aF42.86926
aF42.85883
aF42.84317
aF42.82919
aF42.81243
aF42.80115
aF42.78796
aF42.7749
aF42.76126
aF42.74352
aF42.73972
aF42.63547
aF42.56078
aF42.40563
aF42.27239
aF42.24485
aF42.17819
aF42.1251
aF42.12693
aF42.13452
aF42.12604
aF42.07338
aF41.99235
aF41.90675
aF41.84237
aF41.80767
aF41.76632
aF41.70692
aF41.65257
aF41.62269
aF41.58429
aF41.53215
aF41.50012
aF41.4934
aF41.47393
aF41.46749
aF41.50012
aF41.53088
aF41.55925
aF41.58522
aF41.6107
aF41.60824
aF41.59869
aF41.59355
aF41.57775
aF41.56015
aF41.56592
aF41.56845
aF41.55768
aF41.53482
aF41.50934
aF41.50186
aF41.49897
aF41.47101
aF41.46614
aF41.45701
aF41.37512
aF41.38145
aF41.39145
aF41.38989
aF41.37177
aF41.35838
aF41.34873
aF41.35358
aF41.39513
aF41.44269
aF41.42502
aF41.39585
aF41.35765
aF41.32419
aF41.29037
aF41.27132
aF41.24554
aF41.21054
aF41.1914
aF41.19091
aF41.19465
aF41.22266
aF41.27278
aF41.27128
aF41.26551
aF41.29831
aF41.30009
aF41.29787
aF41.29453
aF41.28964
aF41.27486
aF41.25615
aF41.22603
aF41.19874
aF41.22414
aF41.25944
aF41.29497
aF41.31882
aF41.35508
aF41.36761
aF41.35016
aF41.35732
aF41.37558
aF41.40545
aF41.43347
aF41.43132
aF41.54358
aF41.60369
aF41.65399
aF41.66371
aF41.67337
aF41.67761
aF41.76434
aF41.78242
aF41.78542
aF41.78958
aF41.79375
aF41.80012
aF41.8251
aF41.8452
aF41.8912
aF41.89549
aF41.9123
aF41.95103
aF42.0102
aF42.0179
aF42.01662
aF42.0147
aF42.01338
aF42.01103
aF42.00874
aF42.00806
aF42.02371
aF42.02435
aF42.02605
aF42.0271
aF42.02907
aF42.03085
aF42.03198
aF42.03398
aF42.03006
aF42.025
aa(lp32
F34.87057
aF35.00186
aF35.00332
aF35.07971
aF35.11791
aF35.14231
aF35.21811
aF35.37012
aF35.49125
aF35.5417
aF35.60517
aF35.66942
aF35.73579
aF35.81412
aF35.86436
aF35.9167
aF35.98542
aF36.05493
aF36.11546
aF36.15058
aF36.10119
aF36.01461
aF36.09833
aF36.21464
aF36.37619
aF36.60322
aF36.817
aF36.99997
aF37.0004
aF37.0004
aF36.99998
aF36.99998
aF36.99998
aF36.99998
aF36.99998
aF36.99998
aF37.00022
aF37.00017
aF37.00012
aF37.00048
aF37.00094
aF37.00105
aF37.00097
aF37.00166
aF37.00147
aF37.00102
aF37.00247
aF37.00325
aF37.00383
aF36.99828
aF36.99845
aF36.99831
aF36.9991
aF36.99926
aF36.99908
aF36.99908
aF36.99897
aF36.8531
aF36.70384
aF36.54513
aF36.41637
aF36.29154
aF36.18724
aF36.03128
aF35.93088
aF35.81044
aF35.65092
aF35.45859
aF35.30697
aF34.91388
aF34.71264
aF34.44558
aF34.08446
aF33.71335
aF33.3477
aF33.07165
aF32.70386
aF32.40743
aF32.1771
aF31.87069
aF31.63698
aF31.3325
aF31.33252
aF31.3338
aF31.33396
aF31.334
aF31.33394
aF31.33406
aF31.33393
aF31.33408
aF31.33399
aF31.33341
aF31.33363
aF31.33296
aF31.33299
aF31.33305
aF31.33363
aF31.33328
aF31.33281
aF31.33283
aF31.33257
aF31.34898
aF31.38586
aF31.40231
aF31.41305
aF31.42333
aF31.43196
aF31.45068
aF31.46195
aF31.4678
aF31.47995
aF31.49099
aF31.50825
aF31.51945
aF31.54305
aF31.56227
aF31.6012
aF31.61823
aF31.62425
aF31.63623
aF31.65645
aF31.67094
aF31.67701
aF31.69377
aF31.72891
aF31.75165
aF31.76301
aF31.78954
aF31.80473
aF31.82357
aF31.83702
aF31.8513
aF31.86132
aF31.87666
aF31.88514
aF31.89671
aF31.90787
aF31.99917
aF32.0054
aF32.02905
aF32.12566
aF32.17992
aF32.21797
aF32.2376
aF32.28088
aF32.31044
aF32.32538
aF32.33509
aF32.36468
aF32.43408
aF32.48373
aF32.49526
aF32.50602
aF32.50999
aF32.51839
aF32.52419
aF32.53277
aF32.54351
aF32.55396
aF32.56772
aF32.56625
aF32.56133
aF32.57093
aF32.58137
aF32.5955
aF32.60317
aF32.61295
aF32.6238
aF32.62325
aF32.6247
aF32.63705
aF32.65006
aF32.66489
aF32.66985
aF32.67414
aF32.6785
aF32.68221
aF32.68517
aF32.68732
aF32.6986
aF32.70545
aF32.71192
aF32.71829
aF32.71943
aF32.73946
aF32.73137
aF32.73487
aF32.87408
aF32.97206
aF33.03255
aF33.23376
aF33.39691
aF33.47131
aF33.58709
aF33.6969
aF33.84446
aF33.91285
aF33.96372
aF34.04257
aF34.12866
aF34.17212
aF34.31087
aF34.41527
aF34.47903
aF34.64288
aF34.71453
aF34.79181
aF34.86997
aa(lp33
F42.90429
aF43.62445
aF43.86626
aF44.04488
aF44.24888
aF44.3367
aF44.44566
aF44.57861
aF44.74311
aF44.82766
aF44.94664
aF45.02781
aF45.16372
aF45.28562
aF45.3673
aF45.42567
aF45.47889
aF45.53865
aF45.58559
aF45.64596
aF45.69665
aF45.77295
aF45.8064
aF45.83946
aF45.99541
aF45.99541
aF46.07545
aF46.15127
aF46.26217
aF46.31855
aF46.37415
aF46.43711
aF46.62842
aF46.73512
aF46.81942
aF46.92218
aF47.05489
aF47.2386
aF47.40525
aF47.5696
aF47.68738
aF47.74415
aF47.86928
aF47.98025
aF48.1651
aF48.18938
aF48.31193
aF48.42804
aF48.55652
aF48.6964
aF48.99919
aF48.9992
aF48.99924
aF48.99932
aF48.99934
aF48.99935
aF48.99944
aF48.99948
aF48.99955
aF48.99971
aF48.99971
aF48.99969
aF48.99969
aF48.99969
aF48.99971
aF48.99979
aF48.99979
aF48.99982
aF48.99994
aF48.99994
aF48.99994
aF48.99994
aF48.99994
aF48.99994
aF48.99994
aF48.99994
aF48.99995
aF48.99995
aF48.99995
aF48.99995
aF48.99995
aF48.99995
aF48.99995
aF48.99995
aF48.99995
aF48.99995
aF48.99995
aF48.99995
aF48.99995
aF48.99995
aF48.99995
aF48.99995
aF48.99995
aF48.99995
aF48.99995
aF48.99995
aF48.99995
aF48.99995
aF48.99995
aF48.99995
aF48.99995
aF48.99995
aF48.99995
aF49.00009
aF49.0001
aF49.00028
aF49.00115
aF49.00112
aF49.00111
aF49.00106
aF49.00106
aF49.00105
aF49.00104
aF49.00104
aF49.00103
aF49.00101
aF49.00097
aF49.00094
aF49.00089
aF49.00092
aF49.00094
aF49.00094
aF49.00093
aF49.00088
aF49.00086
aF49.00075
aF49.00078
aF49.00092
aF49.00081
aF49.00078
aF49.00076
aF49.00076
aF49.00076
aF49.00077
aF49.00078
aF49.00078
aF49.00078
aF49.00076
aF49.00075
aF49.00079
aF49.00082
aF49.00082
aF49.00083
aF49.00083
aF49.00083
aF49.00083
aF49.00083
aF49.00084
aF49.00089
aF49.00091
aF49.00091
aF49.00091
aF48.3976
aF47.83746
aF47.4856
aF47.27501
aF46.91868
aF46.72648
aF46.66654
aF46.64887
aF46.42232
aF46.16057
aF46.03447
aF45.85001
aF45.5605
aF45.59018
aF45.62193
aF45.40292
aF45.03517
aF44.8772
aF44.79795
aF44.79784
aF44.42693
aF44.48727
aF44.55591
aF44.5244
aF44.693
aF44.57973
aF44.47407
aF44.46779
aF44.26798
aF44.12492
aF44.00827
aF43.91411
aF43.80987
aF43.78102
aF43.72274
aF43.68192
aF43.49991
aF43.18826
aF43.14791
aF43.08959
aF43.02641
aF42.98878
aF42.92784
aF42.66754
aF42.45085
aF42.3709
aF42.28126
aF42.20782
aF42.19558
aF42.14132
aF42.10051
aF42.0564
aF42.00318
aF42.00157
aF42.00159
aF42.00154
aF42.00132
aF42.00063
aF41.99951
aF41.99926
aF41.99875
aF41.99856
aF41.99861
aF41.99834
aF41.99763
aF42.00116
aF42.00111
aF42.00099
aF42.00054
aF42.00021
aF41.99973
aF41.99938
aF41.99841
aF41.99735
aF41.99645
aF41.99384
aF41.99331
aF41.99102
aF41.98895
aF41.99367
aF41.99372
aF41.99372
aF41.99407
aF41.99437
aF41.99501
aF41.9946
aF41.99503
aF41.9962
aF41.99991
aF41.99977
aF41.99607
aF41.99615
aF41.9961
aF41.99648
aF41.99676
aF41.99701
aF41.99677
aF41.99855
aF41.99804
aF41.99765
aF41.99768
aF41.99632
aF41.99686
aF41.99766
aF41.99812
aF41.99876
aF41.99989
aF42.00025
aF42.06248
aF42.90378
aa(lp34
F42.0324
aF42.025
aF42.03006
aF42.03398
aF42.03198
aF42.03085
aF42.02907
aF42.0271
aF42.02605
aF42.02435
aF42.02371
aF42.00806
aF42.00422
aF41.95386
aF41.91745
aF41.86571
aF41.82064
aF41.7745
aF41.70876
aF41.66302
aF41.63037
aF41.59388
aF41.57286
aF41.55723
aF41.51726
aF41.46077
aF41.43871
aF41.41597
aF41.41949
aF41.41279
aF41.40517
aF41.38966
aF41.38202
aF41.37585
aF41.36486
aF41.34279
aF41.31924
aF41.30454
aF41.30448
aF41.30512
aF41.25667
aF41.17324
aF41.09369
aF41.02587
aF40.96545
aF40.99452
aF41.02167
aF41.03641
aF41.05714
aF41.10729
aF41.1361
aF41.15369
aF41.17253
aF41.19542
aF41.2464
aF41.31968
aF41.39063
aF41.44947
aF41.4634
aF41.49007
aF41.62512
aF41.7489
aF41.8829
aF41.95746
aF42.04638
aF42.04964
aF42.05048
aF42.04817
aF42.04633
aF42.04408
aF42.04217
aF42.03964
aF42.03799
aF42.03653
aF42.00898
aF42.01586
aF42.02174
aF42.02112
aF42.02907
aF42.0362
aF42.0324
aa(lp35
F45.41417
aF45.36062
aF45.31094
aF45.27537
aF45.16131
aF45.15583
aF45.19117
aF45.16473
aF44.86057
aF44.64308
aF44.52129
aF44.3865
aF44.18601
aF43.94936
aF43.85887
aF43.75009
aF43.3391
aF43.09148
aF42.91713
aF43.15789
aF43.22986
aF43.25463
aF43.28294
aF43.33741
aF43.37055
aF43.42156
aF43.47317
aF43.49599
aF43.5098
aF43.54129
aF43.54881
aF43.56134
aF43.57362
aF43.62797
aF43.70063
aF43.71967
aF43.73418
aF43.87502
aF44.06926
aF44.25907
aF44.44042
aF44.77752
aF45.04762
aF45.30545
aF45.30632
aF45.31465
aF45.34332
aF45.30066
aF45.2295
aF45.30201
aF45.3777
aF45.42628
aF45.37818
aF45.42628
aF45.50281
aF45.56901
aF45.62909
aF45.67
aF45.70987
aF45.74958
aF45.81623
aF45.86033
aF45.92584
aF45.9643
aF45.99543
aF46.0431
aF46.08347
aF46.12249
aF46.16222
aF46.20727
aF46.26052
aF46.30252
aF46.35904
aF46.38668
aF46.40907
aF47.2336
aF47.44596
aF47.42971
aF47.40775
aF47.37934
aF47.21792
aF47.1862
aF47.23211
aF47.24942
aF47.29747
aF47.30384
aF47.35818
aF47.35228
aF47.32453
aF47.27645
aF47.23964
aF47.19514
aF47.13885
aF47.08655
aF46.87334
aF46.77077
aF46.35103
aF46.14581
aF45.97931
aF45.93565
aF45.93253
aF45.92914
aF45.92599
aF45.92134
aF45.91631
aF45.91227
aF45.91011
aF45.90475
aF45.89762
aF45.89123
aF45.884
aF45.86914
aF45.85477
aF45.83497
aF45.8154
aF45.67763
aF45.68403
aF45.60846
aF45.58667
aF45.5933
aF45.54035
aF45.50337
aF45.50673
aF45.49539
aF45.47052
aF45.44026
aF45.41429
aa(lp36
F39.72236
aF39.72155
aF39.72104
aF39.72016
aF39.72002
aF39.71991
aF39.71987
aF39.71994
aF39.7207
aF39.72055
aF39.7211
aF39.72121
aF39.7212
aF39.7213
aF39.72178
aF39.72219
aF39.72221
aF39.72204
aF39.68084
aF39.63895
aF39.5557
aF39.47745
aF39.38449
aF39.21291
aF39.11274
aF39.05593
aF38.95625
aF38.85078
aF38.741
aF38.61755
aF38.53663
aF38.45914
aF38.4567
aF38.45568
aF38.45498
aF38.45417
aF38.45296
aF38.45213
aF38.45127
aF38.4512
aF38.45127
aF38.4513
aF38.45163
aF38.45109
aF38.43663
aF38.4298
aF38.42232
aF38.40645
aF38.38297
aF38.37511
aF38.37167
aF38.32143
aF38.30976
aF38.30335
aF38.29474
aF38.28701
aF38.25011
aF38.22593
aF38.18936
aF38.15478
aF38.12512
aF38.0939
aF38.07447
aF38.0408
aF38.02783
aF37.97602
aF37.94854
aF38.10689
aF38.16462
aF38.24466
aF38.36877
aF38.5218
aF38.62346
aF38.69834
aF38.71004
aF38.72543
aF38.79164
aF38.79317
aF38.8261
aF38.83371
aF38.84307
aF38.84892
aF38.85742
aF38.862
aF38.8684
aF38.873
aF38.88081
aF38.88526
aF38.88947
aF38.89608
aF38.90021
aF38.90488
aF38.91004
aF38.91827
aF38.93524
aF38.94054
aF38.95274
aF38.95822
aF38.96493
aF38.98378
aF38.97872
aF38.95647
aF38.93435
aF38.93434
aF38.94939
aF38.96752
aF38.96706
aF38.98551
aF39.02951
aF39.04377
aF39.05664
aF39.0734
aF39.11847
aF39.15328
aF39.18751
aF39.22055
aF39.30555
aF39.32132
aF39.32133
aF39.32135
aF39.42424
aF39.49927
aF39.5644
aF39.61082
aF39.62474
aF39.69042
aF39.65175
aF39.63593
aF39.60853
aF39.56115
aF39.53796
aF39.51986
aF39.55565
aF39.62184
aF39.56096
aF39.47462
aF39.47664
aF39.45704
aF39.38878
aF39.36393
aF39.3143
aF39.24006
aF39.211
aF39.2144
aF39.72015
aF39.72108
aF39.72198
aF39.72248
aF39.72286
aF39.72301
aF39.72294
aF39.72284
aF39.72234
aF39.72259
aF39.72215
aF39.72238
aa(lp37
F35.36161
aF35.3189
aF35.28961
aF35.22431
aF35.12629
aF34.90768
aF34.86113
aF34.63637
aF34.41525
aF34.37586
aF34.35846
aF34.24918
aF34.04429
aF33.89111
aF33.79747
aF33.63789
aF33.63787
aF33.63785
aF33.67014
aF33.72758
aF33.76758
aF33.85925
aF33.91018
aF33.94723
aF33.87507
aF33.88884
aF33.85989
aF33.85795
aF33.80397
aF33.69712
aF33.82223
aF33.85305
aF33.84767
aF33.80971
aF33.9066
aF33.99027
aF34.09407
aF34.21289
aF34.40147
aF34.3795
aF34.86376
aF36.4999
aF36.5004
aF36.5004
aF36.50046
aF36.50609
aF36.51475
aF36.52963
aF36.54875
aF36.56386
aF36.56927
aF36.5919
aF36.60265
aF36.6278
aF36.65329
aF36.67653
aF36.68525
aF36.7013
aF36.7193
aF36.74295
aF36.76898
aF36.81735
aF36.86996
aF36.89755
aF36.90243
aF36.91402
aF36.91582
aF36.95031
aF36.9686
aF37.00006
aF37.0001
aF37.0001
aF36.99852
aF36.99855
aF36.99908
aF36.99944
aF36.99959
aF36.99977
aF36.99885
aF36.99557
aF36.9952
aF36.99504
aF36.99513
aF36.99487
aF36.99494
aF36.99479
aF36.99457
aF36.99441
aF36.99425
aF36.99439
aF36.9942
aF36.99367
aF36.99357
aF36.99325
aF36.99311
aF36.99305
aF36.99306
aF36.99302
aF36.99338
aF36.99423
aF36.99564
aF36.99732
aF36.99906
aF37.002
aF37.00101
aF36.99995
aF36.99954
aF36.99898
aF36.99837
aF36.99841
aF36.99885
aF36.99875
aF36.99903
aF36.99914
aF36.99879
aF36.99927
aF36.99933
aF36.999
aF36.99931
aF36.99928
aF36.9993
aF36.9996
aF36.99947
aF36.9987
aF36.99891
aF36.9986
aF36.98051
aF36.96602
aF36.9573
aF36.94259
aF36.92437
aF36.90056
aF36.86765
aF36.84727
aF36.81628
aF36.75684
aF36.71506
aF36.69672
aF36.67789
aF36.6651
aF36.6532
aF36.63189
aF36.61176
aF36.59907
aF36.58816
aF36.57608
aF36.55355
aF36.53676
aF36.51784
aF36.50798
aF36.50004
aF36.49941
aF36.49847
aF36.34574
aF36.24019
aF36.12621
aF35.98969
aF35.90628
aF35.79384
aF35.67384
aF35.56173
aF35.40509
aa(lp38
F41.22158
aF41.22051
aF41.18818
aF41.12499
aF41.06155
aF41.00985
aF40.96092
aF40.90232
aF40.86955
aF40.80787
aF40.76627
aF40.72383
aF40.65321
aF40.6388
aF40.61628
aF40.54795
aF40.39711
aF40.18683
aF40.18675
aF40.11688
aF40.07415
aF40.03013
aF39.97809
aF39.91874
aF39.74113
aF39.56936
aF39.4772
aF39.35731
aF39.27704
aF39.14296
aF39.08398
aF39.03248
aF38.923
aF39.00578
aF38.97618
aF38.90618
aF38.76425
aF38.59253
aF38.49394
aF38.4078
aF38.4217
aF38.42232
aF38.48317
aF38.5372
aF38.57197
aF38.64709
aF38.72288
aF38.74861
aF38.72015
aF38.62004
aF38.61781
aF38.62524
aF38.62148
aF38.66266
aF38.70224
aF38.68627
aF38.66866
aF38.64348
aF38.63132
aF38.6537
aF38.75335
aF38.78368
aF38.8054
aF38.98255
aF39.10246
aF39.08038
aF39.10582
aF39.10548
aF39.10555
aF39.24848
aF39.31752
aF39.40532
aF39.56565
aF39.67734
aF39.79934
aF39.96958
aF40.19421
aF40.29178
aF40.35235
aF40.46558
aF40.56906
aF40.69148
aF40.81594
aF40.88703
aF40.97564
aF41.07024
aF41.18506
aF41.27179
aF41.31001
aF41.40873
aF41.47287
aF41.55718
aF41.60389
aF41.69464
aF41.69612
aF41.69638
aF41.69912
aF41.69997
aF41.702
aF41.7044
aF41.70574
aF41.70747
aF41.71047
aF41.71248
aF41.71492
aF41.71874
aF41.72117
aF41.7235
aF41.72524
aF41.72664
aF41.72723
aF41.72793
aF41.72904
aF41.72966
aF41.73076
aF41.73115
aF41.73179
aF41.73201
aF41.73253
aF41.73379
aF41.95941
aF41.87505
aF41.86422
aF41.86308
aF41.86287
aF41.83106
aF41.82897
aF41.77081
aF41.75005
aF41.75005
aF41.73789
aF41.73768
aF41.71729
aF41.71
aF41.69831
aF41.68021
aF41.67633
aF41.67643
aF41.67654
aF41.67669
aF41.67656
aF41.67652
aF41.68735
aF41.70006
aF41.70745
aF41.74619
aF41.75003
aF41.80494
aF41.86379
aF41.87503
aF41.87785
aF41.92276
aF41.96332
aF41.98137
aF42.00004
aF42.00004
aF42.01031
aF42.03073
aF42.02962
aF42.06656
aF42.09392
aF42.0964
aF42.116
aF42.12504
aF42.15467
aF42.17579
aF42.19587
aF42.20525
aF42.21642
aF42.22227
aF42.2255
aF42.22785
aF42.23491
aF42.23727
aF42.24034
aF42.24954
aF42.25005
aF42.25005
aF42.2516
aF42.25229
aF42.25231
aF42.2524
aF42.2558
aF42.26127
aF42.26771
aF42.27228
aF42.27841
aF42.28512
aF42.2915
aF42.29829
aF42.30398
aF42.31076
aF42.31422
aF42.31872
aF42.32568
aF41.95513
aF41.88874
aF41.82006
aF41.75918
aF41.71723
aF41.67413
aF41.64064
aF41.55044
aF41.51721
aF41.44163
aF41.34961
aF41.29158
aF41.24365
aa(lp39
F40.68928
aF40.68985
aF40.76026
aF41.05548
aF41.36
aF41.59062
aF41.89425
aF41.99372
aF41.99367
aF41.98895
aF41.99102
aF41.99331
aF41.99384
aF41.99645
aF41.99735
aF41.99841
aF41.99938
aF41.99973
aF42.00021
aF42.00054
aF42.00099
aF42.00111
aF42.00116
aF41.99763
aF41.99834
aF41.99861
aF41.99856
aF41.99875
aF41.99926
aF41.99951
aF42.00063
aF42.00132
aF42.00154
aF42.00159
aF42.00157
aF42.00034
aF41.83664
aF41.64119
aF41.52149
aF41.41513
aF41.36572
aF41.20441
aF41.10318
aF41.00917
aF40.9976
aF40.99725
aF40.99635
aF40.99635
aF40.99485
aF40.99533
aF40.99609
aF40.99634
aF40.99734
aF40.99766
aF40.99797
aF40.99841
aF40.9983
aF40.99871
aF40.99964
aF41.00064
aF41.00069
aF41.00066
aF40.87296
aF40.68445
aF40.50615
aF40.41493
aF40.2929
aF40.18844
aF40.03782
aF39.79876
aF39.56752
aF39.36423
aF39.22605
aF39.11656
aF38.95788
aF38.81393
aF38.60929
aF38.40118
aF38.215
aF38.21472
aF38.10272
aF37.97469
aF37.7899
aF37.5667
aF37.35363
aF37.20443
aF37.09597
aF37.01706
aF36.99908
aF36.99908
aF36.99926
aF36.9991
aF36.99831
aF36.99845
aF36.99828
aF37.00383
aF37.00325
aF37.00247
aF37.00102
aF37.00147
aF37.00166
aF37.00097
aF37.00105
aF37.00094
aF37.00048
aF37.00012
aF37.00017
aF37.00022
aF36.99998
aF36.99998
aF36.99998
aF36.99998
aF36.99998
aF36.99998
aF37.0004
aF37.0004
aF37.13439
aF37.47222
aF37.70735
aF37.77873
aF37.95499
aF38.20495
aF38.55049
aF38.75165
aF38.90545
aF39.08777
aF39.23851
aF39.36296
aF39.45715
aF39.61018
aF39.75817
aF39.99994
aF40.09896
aF40.30302
aF40.4958
aa(lp40
F39.93777
aF39.70043
aF39.44272
aF39.22665
aF38.86965
aF38.94897
aF38.95562
aF38.86909
aF38.64441
aF38.36887
aF38.18082
aF38.029
aF38.00209
aF37.93884
aF37.86949
aF37.87923
aF37.80327
aF37.7393
aF37.63719
aF37.4531
aF37.28303
aF37.07764
aF37.06833
aF36.98088
aF36.98119
aF36.96794
aF36.92905
aF36.8469
aF36.84158
aF36.83398
aF36.81231
aF36.8003
aF36.789
aF36.78773
aF36.75182
aF36.75584
aF36.7585
aF36.75464
aF36.74653
aF36.73275
aF36.71978
aF36.69888
aF36.68068
aF36.65915
aF36.60192
aF36.56649
aF36.56568
aF36.59502
aF36.56646
aF36.49992
aF36.49903
aF36.49893
aF36.46179
aF36.49769
aF36.49967
aF36.50213
aF36.50901
aF36.51931
aF36.532
aF36.53975
aF36.55123
aF36.55992
aF36.56944
aF36.57333
aF36.57664
aF36.57864
aF36.58115
aF36.57718
aF36.57648
aF36.56167
aF36.55831
aF36.54734
aF36.53165
aF36.5285
aF36.52572
aF36.51616
aF36.51372
aF36.50562
aF36.50257
aF36.49991
aF36.49821
aF36.49628
aF36.46447
aF36.38489
aF36.33702
aF36.33615
aF36.30261
aF36.27935
aF36.25466
aF36.2475
aF36.25007
aF36.23823
aF36.24808
aF36.24847
aF36.25276
aF36.23814
aF36.22689
aF36.2138
aF36.18519
aF36.16088
aF36.12628
aF36.11685
aF36.11008
aF36.07234
aF36.00063
aF36.00061
aF36.00059
aF35.99782
aF35.99568
aF36.06774
aF36.11715
aF36.15962
aF36.20033
aF36.22665
aF36.2656
aF36.31659
aF36.3856
aF36.41869
aF36.47858
aF36.49808
aF36.49846
aF36.49836
aF36.49713
aF36.49956
aF36.49858
aF36.49791
aF36.49766
aF36.49806
aF36.49853
aF36.49921
aF36.49878
aF36.49944
aF36.49941
aF36.50004
aF36.50798
aF36.51784
aF36.53676
aF36.55355
aF36.57608
aF36.58816
aF36.59907
aF36.61176
aF36.63189
aF36.6532
aF36.6651
aF36.67789
aF36.69672
aF36.71506
aF36.75684
aF36.81628
aF36.84727
aF36.86765
aF36.90056
aF36.92437
aF36.94259
aF36.9573
aF36.96602
aF36.98051
aF36.9986
aF36.99891
aF37.00007
aF37.10905
aF37.25536
aF37.44977
aF37.64784
aF37.80803
aF38.00647
aF38.16799
aF38.33711
aF38.61798
aF38.75886
aF38.88663
aF38.99577
aF39.1
aF39.20636
aF39.36299
aF39.53325
aF39.63948
aF39.68347
aF39.74583
aF39.76723
aF39.76087
aF39.79775
aF39.87499
aF39.87212
aF39.99981
aF40.0
aF40.00219
aF40.02858
aF40.05044
aF40.07119
aF40.0884
aF40.12281
aF40.16228
aF40.20308
aF40.24858
aF40.29116
aF40.31423
aF40.33099
aF40.35503
aF40.38685
aF40.4387
aF40.46521
aF40.50065
aF40.50906
aF40.51437
aF40.54015
aF40.56193
aF40.53739
aF40.52417
aF40.52783
aF40.52837
aF40.5833
aF40.58521
aF40.58521
aF40.58237
aF40.57908
aF40.5754
aF40.57257
aF40.57083
aF40.57135
aF40.57295
aF40.57548
aF40.57761
aF40.58009
aF40.58033
aF40.58046
aF40.58072
aF40.58092
aF40.58461
aF40.58798
aF40.59291
aF40.59753
aF40.60007
aF40.60357
aF40.61312
aF40.51007
aF40.43348
aF40.38952
aF40.37877
aF40.37826
aF40.36321
aF40.13864
aF39.93851
aa(lp41
F46.12486
aF46.21554
aF46.32698
aF46.41556
aF46.4675
aF46.52548
aF46.57556
aF46.6189
aF46.80371
aF47.14864
aF47.21724
aF47.28515
aF47.37287
aF47.44293
aF47.51493
aF47.59587
aF47.71572
aF47.80794
aF47.90646
aF48.17704
aF48.45813
aF48.61319
aF48.7473
aF48.83509
aF48.96428
aF49.00068
aF48.99998
aF48.99998
aF48.99975
aF48.99944
aF48.99893
aF49.24573
aF49.36931
aF49.36754
aF48.86383
aF48.77344
aF48.71748
aF48.69349
aF48.70394
aF48.64995
aF48.63752
aF48.63087
aF48.58493
aF48.51546
aF48.51784
aF48.53058
aF48.52897
aF48.54183
aF48.59213
aF48.6028
aF48.60336
aF48.61654
aF48.62482
aF48.54083
aF48.49936
aF48.44018
aF48.42745
aF48.3297
aF48.25904
aF48.24709
aF48.23581
aF48.22359
aF48.22359
aF48.2291
aF48.2348
aF48.23731
aF48.28861
aF48.34861
aF48.33474
aF48.24758
aF48.24556
aF48.25223
aF48.23202
aF48.23741
aF48.2191
aF48.2098
aF48.1973
aF48.20376
aF48.19534
aF48.15271
aF48.14116
aF48.11667
aF48.10724
aF48.09995
aF48.07224
aF48.06866
aF48.05174
aF48.06629
aF48.06933
aF48.07379
aF48.15117
aF48.17855
aF48.18875
aF48.19276
aF48.24047
aF48.22413
aF48.17682
aF48.17965
aF48.15999
aF48.14872
aF48.1357
aF48.1281
aF48.11763
aF48.10999
aF48.11982
aF48.10546
aF48.09121
aF48.1053
aF48.11182
aF48.0968
aF48.03777
aF48.02382
aF48.0157
aF48.00181
aF47.98641
aF48.00265
aF48.01108
aF48.01782
aF48.0218
aF48.01818
aF48.00993
aF48.00801
aF48.00744
aF48.01075
aF48.00102
aF48.01453
aF48.01372
aF48.00558
aF47.99989
aF47.98854
aF47.91636
aF47.87488
aF47.79955
aF47.77511
aF47.7499
aF47.71455
aF47.67166
aF47.6249
aF47.60824
aF47.54291
aF47.49991
aF47.47358
aF47.3946
aF47.36828
aF47.35284
aF47.30654
aF47.2911
aF47.29148
aF46.7062
aF46.63861
aF46.31767
aF46.07835
aF46.01591
aF45.96895
aF45.90582
aF45.79523
aF45.68135
aF45.56645
aF45.46357
aF45.39338
aF45.34242
aF45.21248
aF45.08186
aF44.85841
aF44.68862
aF44.57147
aF44.55918
aF44.38641
aF44.14754
aF44.00925
aF43.86434
aF43.772
aF43.50073
aF43.50055
aF43.50055
aF43.50074
aF43.50068
aF43.50068
aF43.50067
aF43.50071
aF43.50058
aF43.50023
aF43.50004
aF43.49978
aF43.4996
aF43.49954
aF43.49963
aF43.49979
aF43.50009
aF43.50032
aF43.50079
aF43.50097
aF43.50098
aF43.50095
aF43.50065
aF43.4999
aF43.50002
aF43.50019
aF43.50026
aF43.50039
aF43.50039
aF43.52445
aF43.67232
aF43.78183
aF43.83963
aF43.88682
aF43.96645
aF44.08393
aF44.17617
aF44.27176
aF44.44334
aF44.60543
aF44.73996
aF44.87258
aF44.99072
aF45.16768
aF45.17154
aF45.30185
aF45.38213
aF45.4136
aF45.5246
aF45.60272
aF45.67943
aF45.77372
aF45.83751
aF45.88695
aF45.91334
aF45.93524
aF46.12457
aa(lp42
F47.27588
aF47.2911
aF47.30654
aF47.35284
aF47.36828
aF47.3946
aF47.47358
aF47.49991
aF47.54291
aF47.60824
aF47.6249
aF47.67166
aF47.71455
aF47.7499
aF47.77511
aF47.79955
aF47.87488
aF47.91636
aF47.98854
aF47.99989
aF48.00558
aF48.01372
aF48.01339
aF47.99989
aF48.21586
aF48.30499
aF48.23084
aF48.02884
aF47.79999
aF47.61777
aF47.47445
aF47.26139
aF47.05451
aF46.69739
aF46.50002
aF46.50002
aF46.5086
aF46.50558
aF46.49439
aF46.52686
aF46.53123
aF46.50412
aF46.33701
aF46.25002
aF46.14955
aF46.05884
aF46.10317
aF45.92685
aF45.62502
aF45.40252
aF44.87502
aF44.51283
aF44.30402
aF44.00001
aF43.59083
aF43.21881
aF43.09101
aF43.00006
aF42.99521
aF42.99015
aF42.98721
aF42.98495
aF42.97997
aF42.97317
aF42.96564
aF42.95145
aF42.93771
aF42.92611
aF42.88836
aF42.87746
aF42.8688
aF42.85569
aF42.84547
aF42.83667
aF42.82189
aF42.81721
aF42.80548
aF42.80294
aF42.79538
aF42.79241
aF42.79022
aF42.78848
aF42.7866
aF42.78085
aF42.77517
aF42.77018
aF42.75537
aF42.7322
aF42.70785
aF42.70094
aF42.69175
aF42.66387
aF42.65433
aF42.63679
aF42.6312
aF42.6231
aF42.61732
aF42.60985
aF42.59175
aF42.58429
aF42.5804
aF42.57102
aF42.56154
aF42.55439
aF42.54921
aF42.55472
aF42.55492
aF42.54327
aF42.53449
aF42.52641
aF42.5135
aF42.47802
aF42.36352
aF42.35221
aF42.34003
aF42.32891
aF42.30857
aF42.25103
aF42.20737
aF42.13097
aF42.10497
aF42.04026
aF41.98629
aF41.95941
aF41.73379
aF41.73253
aF41.73201
aF41.73179
aF41.73115
aF41.73076
aF41.72966
aF41.72904
aF41.72793
aF41.72723
aF41.72664
aF41.72524
aF41.7235
aF41.72117
aF41.71874
aF41.71492
aF41.71248
aF41.71047
aF41.70747
aF41.70574
aF41.7044
aF41.702
aF41.69997
aF41.69912
aF41.69638
aF41.69612
aF41.69612
aF41.74881
aF41.75992
aF41.75956
aF41.75961
aF41.75967
aF41.7596
aF41.75986
aF41.75987
aF41.75931
aF41.75909
aF41.75906
aF41.75908
aF41.75933
aF41.75994
aF41.76051
aF41.76046
aF41.76046
aF41.7604
aF41.75987
aF41.75967
aF41.75962
aF41.75972
aF41.76023
aF41.76029
aF41.76104
aF41.76096
aF41.7663
aF41.78343
aF41.84696
aF41.85301
aF41.85512
aF41.87503
aF41.89985
aF41.9034
aF41.90566
aF41.91258
aF41.93289
aF41.98659
aF42.00002
aF42.00003
aF42.0693
aF42.07287
aF42.09551
aF42.0971
aF42.12503
aF42.14941
aF42.17546
aF42.18538
aF42.23533
aF42.31435
aF42.38456
aF42.48891
aF42.4935
aF42.49376
aF45.14918
aF45.27292
aF45.37709
aF45.40866
aF45.57352
aF45.74157
aF45.78338
aF45.92178
aF45.95395
aF45.98817
aF45.99719
aF46.00606
aF45.99133
aF46.02551
aF46.07388
aF46.2038
aF46.26802
aF46.3553
aF46.37766
aF46.40866
aF46.45715
aF46.50335
aF46.51168
aF46.55412
aa(lp43
F36.99927
aF36.99879
aF36.99914
aF36.99903
aF36.99875
aF36.99885
aF36.99841
aF36.99837
aF36.99898
aF36.99954
aF36.99995
aF37.00101
aF37.002
aF36.99906
aF36.99732
aF36.99564
aF36.99423
aF36.99338
aF36.99302
aF36.99352
aF37.10676
aF37.22191
aF37.3385
aF37.45597
aF37.49347
aF37.68749
aF37.80941
aF37.94303
aF38.05734
aF38.17556
aF38.26504
aF38.30634
aF38.41997
aF38.47219
aF38.52933
aF38.59586
aF38.66387
aF38.84279
aF39.24305
aF39.33572
aF39.40853
aF39.53889
aF39.67645
aF39.87098
aF40.00061
aF40.00308
aF40.00309
aF40.00261
aF40.00244
aF40.0021
aF40.0019
aF40.00179
aF40.00165
aF40.00166
aF40.00183
aF40.00185
aF40.00223
aF40.00224
aF40.0024
aF40.00241
aF40.00214
aF40.0021
aF40.002
aF40.00147
aF40.00148
aF40.00128
aF40.001
aF40.00088
aF40.00063
aF40.00046
aF40.00018
aF40.0
aF40.0
aF39.99981
aF39.87212
aF39.87499
aF39.79775
aF39.76087
aF39.76723
aF39.74583
aF39.68347
aF39.63948
aF39.53325
aF39.36299
aF39.20636
aF39.1
aF38.99577
aF38.88663
aF38.75886
aF38.61798
aF38.33711
aF38.16799
aF38.00647
aF37.80803
aF37.64784
aF37.44977
aF37.25536
aF37.10905
aF37.00007
aF36.99891
aF36.9987
aF36.99947
aF36.9996
aF36.9993
aF36.99928
aF36.99931
aF36.999
aF36.99933
aa(lp44
F44.79795
aF44.8772
aF45.03517
aF45.40292
aF45.62193
aF45.59018
aF45.5605
aF45.85001
aF46.03447
aF46.16057
aF46.42232
aF46.64887
aF46.66654
aF46.72648
aF46.91868
aF47.27501
aF47.4856
aF47.83746
aF48.3976
aF49.00096
aF49.00096
aF49.00079
aF49.00064
aF49.00069
aF48.99964
aF48.99924
aF48.99957
aF49.00036
aF49.00053
aF49.00068
aF49.00091
aF48.99956
aF48.99895
aF48.99884
aF48.99826
aF48.99771
aF48.99843
aF48.9983
aF48.99827
aF48.99876
aF48.99856
aF48.99854
aF48.99861
aF48.99876
aF48.99867
aF48.99874
aF48.99876
aF48.99884
aF48.9989
aF48.99859
aF48.99857
aF48.99794
aF48.99712
aF48.99708
aF48.9973
aF48.99738
aF48.99773
aF48.99783
aF48.99844
aF48.99868
aF48.99889
aF48.99856
aF48.9989
aF48.9991
aF48.99923
aF48.99947
aF48.99986
aF49.00001
aF49.0004
aF49.00052
aF49.00076
aF49.00048
aF48.9998
aF48.99967
aF48.99947
aF48.99924
aF48.99911
aF48.99945
aF48.9996
aF48.99974
aF48.9998
aF48.99975
aF48.9996
aF48.99949
aF48.99954
aF49.00002
aF49.00002
aF49.00002
aF49.00002
aF49.00002
aF48.99993
aF48.9999
aF48.99986
aF48.99955
aF48.99944
aF48.99959
aF48.99961
aF48.9995
aF48.9993
aF48.9995
aF48.99941
aF48.99944
aF48.99968
aF48.99965
aF48.99969
aF48.99957
aF48.99955
aF48.99955
aF48.99936
aF48.99936
aF48.99931
aF48.99915
aF48.99905
aF48.99923
aF48.9991
aF48.99953
aF48.99945
aF48.99958
aF48.99968
aF49.00003
aF48.99988
aF48.94064
aF48.87209
aF48.74078
aF48.63596
aF48.51119
aF48.34229
aF48.24928
aF48.16808
aF48.02422
aF47.89068
aF47.80855
aF47.67713
aF47.51405
aF47.33541
aF47.19969
aF47.08969
aF47.01725
aF46.93399
aF46.83214
aF46.72735
aF46.57961
aF46.37986
aF46.25767
aF46.11212
aF45.94643
aF45.94531
aF45.94303
aF45.92438
aF45.91665
aF45.88527
aF45.86662
aF45.76099
aF45.6792
aF45.60763
aF45.56775
aF45.54959
aF45.53897
aF45.52117
aF45.49776
aF45.49097
aF45.4698
aF45.45822
aF45.40948
aF45.37416
aF45.33903
aF45.32781
aF45.26152
aF45.20228
aF45.11216
aF45.05227
aF45.0172
aF44.99743
aF44.99738
aF44.99738
aF44.99835
aF44.99901
aF44.99964
aF44.99998
aF45.00039
aF45.00026
aF45.00034
aF44.99358
aF44.99428
aF44.99565
aF44.99626
aF45.00067
aF45.00123
aF45.00132
aF45.00061
aF45.00004
aF45.00032
aF44.99997
aF44.99958
aF45.00389
aF45.00276
aF44.99994
aF44.99233
aF44.93488
aF44.47555
aF44.47407
aF44.57973
aF44.693
aF44.5244
aF44.55591
aF44.48727
aF44.42693
aF44.79784
aa(lp45
F34.99603
aF34.99603
aF34.99561
aF34.99561
aF34.99546
aF34.99563
aF34.99564
aF34.88335
aF34.8091
aF34.64853
aF34.45476
aF34.27688
aF33.98611
aF33.86065
aF33.66042
aF33.49014
aF33.20332
aF32.8198
aF32.48854
aF32.23449
aF32.04029
aF31.86548
aF31.69982
aF31.44239
aF31.27855
aF31.15233
aF30.93955
aF30.78599
aF30.68067
aF30.58693
aF30.53499
aF30.15854
aF30.15814
aF30.15468
aF30.15218
aF30.14923
aF30.14722
aF30.1463
aF30.1461
aF30.14669
aF30.14992
aF30.15359
aF30.15525
aF30.15626
aF30.15794
aF30.1612
aF30.16427
aF30.16838
aF30.17199
aF30.17508
aF30.17665
aF30.17497
aF30.17252
aF30.17045
aF30.16938
aF30.16911
aF30.16968
aF30.17061
aF30.17253
aF30.17298
aF30.17395
aF30.17445
aF30.17571
aF30.17694
aF30.17703
aF30.17691
aF30.1769
aF30.17743
aF30.17833
aF30.17862
aF30.17971
aF30.18067
aF30.18247
aF30.1862
aF30.189
aF30.19088
aF30.18999
aF30.18883
aF30.18808
aF30.18794
aF30.18806
aF30.18821
aF30.18909
aF30.18994
aF30.19149
aF30.19329
aF30.19548
aF30.19894
aF30.19999
aF30.20002
aF30.20239
aF30.20602
aF30.20874
aF30.2125
aF30.21737
aF30.21548
aF30.21031
aF30.20258
aF30.19809
aF30.19228
aF30.1864
aF30.18162
aF30.179
aF30.1758
aF30.17073
aF30.16998
aF30.32549
aF30.41265
aF30.48195
aF30.50749
aF30.56208
aF30.60255
aF30.67352
aF30.73767
aF30.84527
aF31.00146
aF30.99982
aF30.99911
aF31.25014
aF31.36902
aF31.58557
aF31.69486
aF31.76306
aF31.82866
aF31.98546
aF32.06935
aF32.16335
aF32.26525
aF32.49499
aF32.76864
aF33.00314
aF33.00411
aF33.00416
aF33.13073
aF33.24322
aF33.27903
aF33.38283
aF33.39601
aF33.45628
aF33.58229
aF33.68833
aF33.77731
aF33.86407
aF33.96401
aF34.09795
aF34.18388
aF34.24578
aF34.36762
aF34.43438
aF34.64398
aF34.63382
aF34.69708
aF34.76026
aF34.77479
aF34.77566
aF34.86453
aF34.84818
aF34.99185
aF34.99569
aF34.99569
aF34.9952
aF34.99471
aF34.99496
aF34.9949
aF34.99447
aF34.99441
aF34.9945
aF34.99443
aF34.99509
aF34.99498
aF34.99378
aF34.99387
aF34.99455
aF34.99414
aF34.99477
aF34.99498
aF34.99516
aF34.9952
aF34.99547
aF34.99583
aa(lp46
F32.29667
aF32.29677
aF32.35154
aF32.37254
aF32.44841
aF32.51591
aF32.56109
aF32.77213
aF33.05004
aF33.22185
aF33.27335
aF33.31564
aF33.37999
aF33.62895
aF33.93697
aF34.10328
aF34.29262
aF34.41355
aF34.47909
aF34.5708
aF34.69861
aF34.82447
aF34.88642
aF34.93614
aF35.00066
aF35.08466
aF35.06807
aF35.10764
aF35.12974
aF35.14413
aF35.15818
aF35.17278
aF35.18755
aF35.20069
aF35.19986
aF35.18727
aF35.16952
aF35.15834
aF35.09485
aF35.08139
aF34.95304
aF34.95296
aF34.81821
aF34.81353
aF34.80745
aF34.64773
aF34.50112
aF34.36096
aF34.16427
aF34.01498
aF33.86655
aF33.81282
aF33.79948
aF33.79039
aF33.78055
aF33.77521
aF33.76113
aF33.74575
aF33.7306
aF33.72149
aF33.70514
aF33.69281
aF33.67654
aF33.65898
aF33.64983
aF33.62948
aF33.62375
aF33.60689
aF33.57285
aF33.50868
aF33.46336
aF33.40097
aF33.34864
aF33.29373
aF33.2302
aF33.18865
aF33.14014
aF33.11088
aF33.0613
aF33.04846
aF33.01781
aF32.98678
aF32.96077
aF32.94686
aF32.94656
aF32.94963
aF32.95455
aF32.95526
aF32.93451
aF32.92615
aF32.90775
aF32.88314
aF32.86244
aF32.83996
aF32.82156
aF32.81888
aF32.79992
aF32.78312
aF32.77088
aF32.75051
aF32.74654
aF32.7406
aF32.72406
aF32.69908
aF32.66497
aF32.62971
aF32.61821
aF32.60823
aF32.59381
aF32.58577
aF32.56371
aF32.55476
aF32.55971
aF32.54612
aF32.50437
aF32.49828
aF32.49296
aF32.49454
aF32.48257
aF32.47523
aF32.4449
aF32.42564
aF32.40697
aF32.3912
aF32.37751
aF32.36335
aF32.34601
aF32.33562
aF32.31341
aF32.30346
aF32.26966
aF32.25384
aF32.2502
aF32.24211
aF32.23459
aF32.18199
aF32.16666
aF32.16225
aF32.16202
aF32.15346
aF32.15134
aF32.14862
aF32.14586
aF32.14261
aF32.1306
aF32.11999
aF32.1126
aF32.1004
aF32.09397
aF32.08449
aF32.05678
aF32.03485
aF32.09197
aF32.24425
aa(lp47
F36.57718
aF36.58115
aF36.57864
aF36.57664
aF36.57333
aF36.56944
aF36.55992
aF36.55123
aF36.53975
aF36.532
aF36.51931
aF36.50901
aF36.50213
aF36.49967
aF36.49769
aF36.4977
aF36.4977
aF36.4977
aF36.49774
aF36.49777
aF36.49774
aF36.49774
aF36.49754
aF36.49772
aF36.49789
aF36.49783
aF36.49783
aF36.49783
aF36.49783
aF36.49783
aF36.49783
aF36.49783
aF36.49783
aF36.49783
aF36.49783
aF36.49785
aF36.49786
aF36.49792
aF36.49792
aF36.49797
aF36.49801
aF36.49821
aF36.49991
aF36.50257
aF36.50562
aF36.51372
aF36.51616
aF36.52572
aF36.5285
aF36.53165
aF36.54734
aF36.55831
aF36.56167
aF36.57648
aFnan
aF37.91832
aF37.94232
aF37.93056
aF37.84926
aF37.81768
aF37.95776
aF37.93316
aF37.84141
aF37.96217
aF38.15851
aF37.97132
aF38.0877
aF38.22786
aF38.2858
aF38.38422
aF38.45401
aF38.72941
aF38.68959
aF38.778
aF38.87508
aF38.97383
aF39.1054
aF39.10548
aF39.10582
aF39.08038
aF39.10246
aF38.98255
aF38.8054
aF38.78368
aF38.75335
aF38.6537
aF38.63132
aF38.64348
aF38.66866
aF38.68627
aF38.70224
aF38.66266
aF38.62148
aF38.62524
aF38.61781
aF38.62004
aF38.72015
aF38.74861
aF38.72288
aF38.64709
aF38.57197
aF38.5372
aF38.48317
aF38.42232
aF38.4217
aF38.42163
aF38.35741
aF38.24733
aF38.13758
aF38.02918
aF37.9595
aF37.91679
aF37.88575
aF37.84111
aF37.79447
aF37.76427
aF37.7254
aF37.68676
aF37.66699
aF37.64419
aF37.62752
aF37.64735
aF37.62866
aF37.61321
aF37.59113
aF37.57457
aF37.55128
aF37.55479
aF37.52815
aF37.53328
aF37.53799
aF37.53797
aF37.53629
aF37.3961
aF37.30262
aF37.26062
aF37.24026
aF37.20643
aF37.16534
aF37.13151
aF37.0717
aF37.03072
aF37.00539
aF36.99004
aF36.9772
aF36.95792
aF36.92506
aF36.88316
aF36.86025
aF36.85299
aF36.79669
aF36.76161
aF36.73959
aF36.71334
aF36.67899
aF36.67009
aF36.62378
aF36.60115
aF36.60081
aF36.59879
aF36.58639
aF36.59132
aF36.59606
aF36.60766
aF36.62586
aF36.62151
aF36.61624
aF36.6231
aF36.64903
aF36.64789
aF36.64188
aF36.63914
aF36.67792
aF36.49767
aF36.50037
aF36.50118
aF36.50194
aF36.502
aF36.5023
aF36.50228
aF36.5028
aF36.5028
aF36.50236
aF36.50324
aF36.4991
aF36.49903
aF36.49992
aF36.56646
aF36.59502
aF36.56568
aF36.56649
aF36.60192
aF36.65915
aF36.68068
aF36.69888
aF36.71978
aF36.73275
aF36.74653
aF36.75464
aF36.7585
aF36.75584
aF36.75182
aF36.78773
aF36.789
aF36.8003
aF36.81231
aF36.83398
aF36.84158
aF36.8469
aF36.92905
aF36.96794
aF36.98119
aF36.98088
aF36.98455
aF37.06808
aF37.11591
aF37.1734
aF37.22377
aF37.22489
aF37.1908
aF37.14471
aF37.13554
aF37.10853
aF37.07158
aF37.12664
aF37.21699
aF37.26499
aF37.29082
aF37.35622
aF37.40549
aF37.44274
aF37.46091
aF37.4727
aF37.51704
aF37.57223
aF37.62593
aF37.69875
aF37.73245
aF37.7984
aF37.79922
aF37.79985
aF37.87652
aF37.83958
aF37.97146
aa(lp48
F46.29443
aF46.29684
aF46.2584
aF46.14706
aF46.14528
aF46.14601
aF46.14563
aF46.15052
aF46.18533
aF46.01141
aF45.60814
aF45.58297
aF45.68984
aF45.72654
aF45.62484
aF45.64028
aF45.70013
aF45.8262
aF45.93286
aF46.00105
aF46.00095
aF46.00064
aF46.00078
aF45.99831
aF45.99736
aF45.99695
aF45.99541
aF45.83946
aF45.8064
aF45.77295
aF45.69665
aF45.64596
aF45.58559
aF45.53865
aF45.47889
aF45.42567
aF45.3673
aF45.28562
aF45.16372
aF45.02781
aF44.94664
aF44.82766
aF44.74311
aF44.57861
aF44.44566
aF44.3367
aF44.24888
aF44.04488
aF43.86626
aF43.62445
aF42.90429
aF42.90378
aF42.06248
aF42.00025
aF42.00018
aF42.00038
aF41.9996
aF41.9994
aF41.99915
aF41.99836
aF41.99819
aF41.99842
aF41.99817
aF41.99804
aF41.99767
aF41.9975
aF41.99699
aF41.99629
aF41.99586
aF41.99478
aF41.99259
aF41.99375
aF41.99384
aF41.99428
aF41.99572
aF41.99594
aF41.99621
aF41.99746
aF41.9972
aF41.99484
aF41.99454
aF41.99514
aF41.99443
aF41.99313
aF41.99309
aF41.99387
aF41.99336
aF41.99759
aF41.99668
aF41.99738
aF41.99827
aF41.99933
aF42.00077
aF42.00262
aF42.00397
aF42.00755
aF42.00869
aF42.00482
aF42.00388
aF42.00302
aF42.00197
aF42.00086
aF41.99984
aF41.99569
aF41.99625
aF41.99703
aF41.99833
aF41.99984
aF42.01895
aF42.02676
aF42.04007
aF42.06162
aF42.0872
aF42.11159
aF42.13423
aF42.16415
aF42.18708
aF42.2241
aF42.26685
aF42.30177
aF42.34175
aF42.37292
aF42.38645
aF42.39687
aF42.41866
aF42.4677
aF42.50492
aF42.55082
aF42.61733
aF42.65717
aF42.70929
aF42.71629
aF42.77037
aF42.83104
aF42.90352
aF43.01642
aF43.09226
aF43.12748
aF43.18413
aF43.25747
aF43.32446
aF43.38589
aF43.44056
aF43.56138
aF43.64839
aF43.68715
aF43.77646
aF43.87526
aF43.99985
aF44.03333
aF44.06241
aF44.10158
aF44.13275
aF44.16836
aF44.20972
aF44.25798
aF44.30601
aF44.328
aF44.4121
aF44.47282
aF44.52351
aF44.57235
aF44.59834
aF44.63168
aF44.65489
aF44.69571
aF44.71763
aF44.76381
aF44.7934
aF44.82053
aF44.85583
aF44.93013
aF44.95962
aF44.97909
aF44.99983
aF45.0342
aF45.11776
aF45.15586
aF45.17199
aF45.20273
aF45.23466
aF45.24982
aF45.33007
aF45.38237
aF45.42205
aF45.44685
aF45.48122
aF45.52378
aF45.56851
aF45.60835
aF45.62603
aF45.65447
aF45.71273
aF45.75032
aF45.78247
aF45.84432
aF45.88363
aF45.90304
aF45.98047
aF46.00917
aF46.03344
aF46.08197
aF46.11627
aF46.1513
aF46.18385
aF46.1959
aF46.23311
aF46.26068
aa(lp49
F45.16768
aF44.99072
aF44.87258
aF44.73996
aF44.60543
aF44.44334
aF44.27176
aF44.17617
aF44.08393
aF43.96645
aF43.88682
aF43.83963
aF43.78183
aF43.67232
aF43.52445
aF43.50039
aF43.50043
aF43.47212
aF43.44418
aF43.40603
aF43.37124
aF43.33069
aF43.29448
aF43.27584
aF43.23908
aF43.22328
aF43.18002
aF43.1442
aF43.09637
aF43.05022
aF42.99727
aF42.93716
aF42.89055
aF42.84973
aF42.82472
aF42.78332
aF42.75315
aF42.71783
aF42.69783
aF42.67566
aF42.59567
aF42.49063
aF42.49063
aF42.49028
aF42.56082
aF42.66688
aF42.73033
aF42.77046
aF42.81832
aF42.86732
aF42.84992
aF42.86178
aF42.76872
aF42.81381
aF42.89153
aF42.99838
aF42.99824
aF42.99807
aF42.99799
aF42.9979
aF42.99883
aF42.99824
aF42.99786
aF42.99842
aF42.99973
aF43.00021
aF43.00086
aF43.00103
aF43.00059
aF43.00059
aF43.00077
aF43.12598
aF43.2032
aF43.28816
aF43.35212
aF43.42891
aF43.50396
aF43.5756
aF43.64966
aF43.75174
aF43.87498
aF43.94686
aF44.02684
aF44.11429
aF44.18038
aF44.2584
aF44.33037
aF44.42758
aF44.53558
aF44.57694
aF44.67308
aF44.70237
aF44.76792
aF44.8008
aF44.89596
aF44.99736
aF44.99738
aF44.99743
aF45.0172
aF45.05227
aF45.11216
aF45.20228
aF45.26152
aF45.32781
aF45.33903
aF45.37416
aF45.40948
aF45.45822
aF45.4698
aF45.49097
aF45.49776
aF45.52117
aF45.53897
aF45.54959
aF45.56775
aF45.60763
aF45.6792
aF45.76099
aF45.86662
aF45.88527
aF45.91665
aF45.92438
aF45.94303
aF45.94531
aF45.94528
aF45.94528
aF45.94515
aF45.94508
aF45.94507
aF45.94498
aF45.94476
aF45.94472
aF45.94442
aF45.94433
aF45.9441
aF45.94381
aF45.94376
aF45.94353
aF45.94207
aF45.94142
aF45.94102
aF45.93995
aF45.93843
aF45.93629
aF45.93586
aF45.93537
aF45.93602
aF45.93541
aF45.93585
aF45.93524
aF45.93524
aF45.91334
aF45.88695
aF45.83751
aF45.77372
aF45.67943
aF45.60272
aF45.5246
aF45.4136
aF45.38213
aF45.30185
aF45.17154
aa.